---
triple:          'arm64-apple-darwin'
binary-path:     '/Users/kkeshav/Desktop/UFL/courses/fall24/ads/GatorLibrary/redblack_tree'
relocations:
  - { offsetInCU: 0x495E, offset: 0x495E, size: 0x8, addend: 0x0, symName: __ZNSt3__124__put_character_sequenceB7v160006IcNS_11char_traitsIcEEEERNS_13basic_ostreamIT_T0_EES7_PKS4_m, symObjAddr: 0x1C3C, symBinAddr: 0x100003CE0, symSize: 0x1EC }
  - { offsetInCU: 0x5C94, offset: 0x5C94, size: 0x8, addend: 0x0, symName: __ZNSt3__117__floyd_sift_downB7v160006INS_17_ClassicAlgPolicyER7CompareNS_11__wrap_iterIP11reservationEEEET1_S8_OT0_NS_15iterator_traitsIS8_E15difference_typeE, symObjAddr: 0x3958, symBinAddr: 0x1000059FC, symSize: 0x24C }
  - { offsetInCU: 0x6F70, offset: 0x6F70, size: 0x8, addend: 0x0, symName: __ZNSt3__1lsB7v160006INS_11char_traitsIcEEEERNS_13basic_ostreamIcT_EES6_PKc, symObjAddr: 0x688, symBinAddr: 0x10000272C, symSize: 0x48 }
  - { offsetInCU: 0x6FB6, offset: 0x6FB6, size: 0x8, addend: 0x0, symName: __ZNSt3__14endlB7v160006IcNS_11char_traitsIcEEEERNS_13basic_ostreamIT_T0_EES7_, symObjAddr: 0x6FC, symBinAddr: 0x1000027A0, symSize: 0x58 }
  - { offsetInCU: 0x6FF6, offset: 0x6FF6, size: 0x8, addend: 0x0, symName: __ZNSt3__1lsB7v160006IcNS_11char_traitsIcEENS_9allocatorIcEEEERNS_13basic_ostreamIT_T0_EES9_RKNS_12basic_stringIS6_S7_T1_EE, symObjAddr: 0x754, symBinAddr: 0x1000027F8, symSize: 0x4C }
  - { offsetInCU: 0x704E, offset: 0x704E, size: 0x8, addend: 0x0, symName: __ZNSt3__118__debug_db_erase_cB7v160006INS_6vectorI11reservationNS_9allocatorIS2_EEEEEEvPT_, symObjAddr: 0xDE4, symBinAddr: 0x100002E88, symSize: 0x10 }
  - { offsetInCU: 0x707F, offset: 0x707F, size: 0x8, addend: 0x0, symName: __ZNSt3__112__to_addressB7v160006I11reservationEEPT_S3_, symObjAddr: 0xF28, symBinAddr: 0x100002FCC, symSize: 0x14 }
  - { offsetInCU: 0x70B4, offset: 0x70B4, size: 0x8, addend: 0x0, symName: __ZNSt3__119__libcpp_deallocateB7v160006EPvmm, symObjAddr: 0x105C, symBinAddr: 0x100003100, symSize: 0x60 }
  - { offsetInCU: 0x7119, offset: 0x7119, size: 0x8, addend: 0x0, symName: __ZNSt3__124__is_overaligned_for_newB7v160006Em, symObjAddr: 0x10BC, symBinAddr: 0x100003160, symSize: 0x20 }
  - { offsetInCU: 0x7147, offset: 0x7147, size: 0x8, addend: 0x0, symName: __ZNSt3__127__do_deallocate_handle_sizeB7v160006IJSt11align_val_tEEEvPvmDpT_, symObjAddr: 0x10DC, symBinAddr: 0x100003180, symSize: 0x30 }
  - { offsetInCU: 0x719A, offset: 0x719A, size: 0x8, addend: 0x0, symName: __ZNSt3__127__do_deallocate_handle_sizeB7v160006IJEEEvPvmDpT_, symObjAddr: 0x110C, symBinAddr: 0x1000031B0, symSize: 0x28 }
  - { offsetInCU: 0x71D8, offset: 0x71D8, size: 0x8, addend: 0x0, symName: __ZNSt3__124__libcpp_operator_deleteB7v160006IJPvSt11align_val_tEEEvDpT_, symObjAddr: 0x1134, symBinAddr: 0x1000031D8, symSize: 0x2C }
  - { offsetInCU: 0x7221, offset: 0x7221, size: 0x8, addend: 0x0, symName: __ZNSt3__124__libcpp_operator_deleteB7v160006IJPvEEEvDpT_, symObjAddr: 0x1160, symBinAddr: 0x100003204, symSize: 0x24 }
  - { offsetInCU: 0x7256, offset: 0x7256, size: 0x8, addend: 0x0, symName: __ZNSt3__1eqB7v160006IcNS_11char_traitsIcEENS_9allocatorIcEEEEbRKNS_12basic_stringIT_T0_T1_EEPKS6_, symObjAddr: 0x121C, symBinAddr: 0x1000032C0, symSize: 0xAC }
  - { offsetInCU: 0x72BD, offset: 0x72BD, size: 0x8, addend: 0x0, symName: __ZNSt3__118__constexpr_strlenB7v160006EPKc, symObjAddr: 0x1350, symBinAddr: 0x1000033F4, symSize: 0x24 }
  - { offsetInCU: 0x72E9, offset: 0x72E9, size: 0x8, addend: 0x0, symName: __ZNSt3__119__debug_db_insert_cB7v160006INS_12basic_stringIcNS_11char_traitsIcEENS_9allocatorIcEEEEEEvPT_, symObjAddr: 0x1510, symBinAddr: 0x1000035B4, symSize: 0x10 }
  - { offsetInCU: 0x731A, offset: 0x731A, size: 0x8, addend: 0x0, symName: __ZNSt3__119__debug_db_insert_cB7v160006INS_6vectorI11reservationNS_9allocatorIS2_EEEEEEvPT_, symObjAddr: 0x1808, symBinAddr: 0x1000038AC, symSize: 0x10 }
  - { offsetInCU: 0x734B, offset: 0x734B, size: 0x8, addend: 0x0, symName: __ZNSt3__115__debug_db_swapB7v160006INS_6vectorI11reservationNS_9allocatorIS2_EEEEEEvPT_S7_, symObjAddr: 0x1AA0, symBinAddr: 0x100003B44, symSize: 0x14 }
  - { offsetInCU: 0x738A, offset: 0x738A, size: 0x8, addend: 0x0, symName: __ZNSt3__125__debug_db_invalidate_allB7v160006INS_6vectorI11reservationNS_9allocatorIS2_EEEEEEvPT_, symObjAddr: 0x1BBC, symBinAddr: 0x100003C60, symSize: 0x10 }
  - { offsetInCU: 0x73BB, offset: 0x73BB, size: 0x8, addend: 0x0, symName: __ZNSt3__116__pad_and_outputB7v160006IcNS_11char_traitsIcEEEENS_19ostreambuf_iteratorIT_T0_EES6_PKS4_S8_S8_RNS_8ios_baseES4_, symObjAddr: 0x1E44, symBinAddr: 0x100003EE8, symSize: 0x240 }
  - { offsetInCU: 0x748A, offset: 0x748A, size: 0x8, addend: 0x0, symName: __ZNSt3__112__to_addressB7v160006IcEEPT_S2_, symObjAddr: 0x22BC, symBinAddr: 0x100004360, symSize: 0x14 }
  - { offsetInCU: 0x74F2, offset: 0x74F2, size: 0x8, addend: 0x0, symName: __ZNSt3__19use_facetB7v160006INS_5ctypeIcEEEERKT_RKNS_6localeE, symObjAddr: 0x24CC, symBinAddr: 0x100004570, symSize: 0x2C }
  - { offsetInCU: 0x79C1, offset: 0x79C1, size: 0x8, addend: 0x0, symName: __ZNSt3__112__to_addressB7v160006IKcEEPT_S3_, symObjAddr: 0x258C, symBinAddr: 0x100004630, symSize: 0x14 }
  - { offsetInCU: 0x7A29, offset: 0x7A29, size: 0x8, addend: 0x0, symName: __ZNSt3__122__make_exception_guardB7v160006INS_6vectorI11reservationNS_9allocatorIS2_EEE16__destroy_vectorEEENS_28__exception_guard_exceptionsIT_EES8_, symObjAddr: 0x2844, symBinAddr: 0x1000048E8, symSize: 0x40 }
  - { offsetInCU: 0x7A5E, offset: 0x7A5E, size: 0x8, addend: 0x0, symName: __ZNSt3__119__allocate_at_leastB7v160006INS_9allocatorI11reservationEEEENS_19__allocation_resultINS_16allocator_traitsIT_E7pointerEEERS6_m, symObjAddr: 0x2B6C, symBinAddr: 0x100004C10, symSize: 0x40 }
  - { offsetInCU: 0x7AA1, offset: 0x7AA1, size: 0x8, addend: 0x0, symName: __ZNSt3__13minB7v160006ImEERKT_S3_S3_, symObjAddr: 0x2C58, symBinAddr: 0x100004CFC, symSize: 0x2C }
  - { offsetInCU: 0x7CCE, offset: 0x7CCE, size: 0x8, addend: 0x0, symName: __ZNSt3__13minB7v160006ImNS_6__lessImmEEEERKT_S5_S5_T0_, symObjAddr: 0x2CBC, symBinAddr: 0x100004D60, symSize: 0x54 }
  - { offsetInCU: 0x7D63, offset: 0x7D63, size: 0x8, addend: 0x0, symName: __ZNSt3__120__throw_length_errorB7v160006EPKc, symObjAddr: 0x2D60, symBinAddr: 0x100004E04, symSize: 0x64 }
  - { offsetInCU: 0x7D8B, offset: 0x7D8B, size: 0x8, addend: 0x0, symName: __ZNSt3__117__libcpp_allocateB7v160006Emm, symObjAddr: 0x2ED0, symBinAddr: 0x100004F74, symSize: 0x60 }
  - { offsetInCU: 0x7DE5, offset: 0x7DE5, size: 0x8, addend: 0x0, symName: __ZNSt3__121__libcpp_operator_newB7v160006IJmSt11align_val_tEEEPvDpT_, symObjAddr: 0x2F30, symBinAddr: 0x100004FD4, symSize: 0x2C }
  - { offsetInCU: 0x7E32, offset: 0x7E32, size: 0x8, addend: 0x0, symName: __ZNSt3__121__libcpp_operator_newB7v160006IJmEEEPvDpT_, symObjAddr: 0x2F5C, symBinAddr: 0x100005000, symSize: 0x24 }
  - { offsetInCU: 0x7E6B, offset: 0x7E6B, size: 0x8, addend: 0x0, symName: __ZNSt3__130__uninitialized_allocator_copyB7v160006INS_9allocatorI11reservationEEPS2_S4_S4_EET2_RT_T0_T1_S5_, symObjAddr: 0x2FBC, symBinAddr: 0x100005060, symSize: 0xF4 }
  - { offsetInCU: 0x7F09, offset: 0x7F09, size: 0x8, addend: 0x0, symName: __ZNSt3__122__make_exception_guardB7v160006INS_29_AllocatorDestroyRangeReverseINS_9allocatorI11reservationEEPS3_EEEENS_28__exception_guard_exceptionsIT_EES8_, symObjAddr: 0x3120, symBinAddr: 0x1000051C4, symSize: 0x4C }
  - { offsetInCU: 0x7F3F, offset: 0x7F3F, size: 0x8, addend: 0x0, symName: __ZNSt3__119__allocator_destroyB7v160006INS_9allocatorI11reservationEENS_16reverse_iteratorIPS2_EES6_EEvRT_T0_T1_, symObjAddr: 0x33B0, symBinAddr: 0x100005454, symSize: 0x70 }
  - { offsetInCU: 0x7FA2, offset: 0x7FA2, size: 0x8, addend: 0x0, symName: __ZNSt3__1neB7v160006IP11reservationS2_EEbRKNS_16reverse_iteratorIT_EERKNS3_IT0_EE, symObjAddr: 0x3454, symBinAddr: 0x1000054F8, symSize: 0x48 }
  - { offsetInCU: 0x7FEE, offset: 0x7FEE, size: 0x8, addend: 0x0, symName: __ZNSt3__112__to_addressB7v160006INS_16reverse_iteratorIP11reservationEEvEENS_5decayIDTclsr19__to_address_helperIT_EE6__callclsr3stdE7declvalIRKS6_EEEEE4typeES8_, symObjAddr: 0x349C, symBinAddr: 0x100005540, symSize: 0x24 }
  - { offsetInCU: 0x804D, offset: 0x804D, size: 0x8, addend: 0x0, symName: __ZNSt3__18pop_heapB7v160006INS_11__wrap_iterIP11reservationEE7CompareEEvT_S6_T0_, symObjAddr: 0x3654, symBinAddr: 0x1000056F8, symSize: 0x58 }
  - { offsetInCU: 0x80B1, offset: 0x80B1, size: 0x8, addend: 0x0, symName: __ZNSt3__1miB7v160006IP11reservationS2_EEDTmicldtfp_4baseEcldtfp0_4baseEERKNS_11__wrap_iterIT_EERKNS4_IT0_EE, symObjAddr: 0x3738, symBinAddr: 0x1000057DC, symSize: 0x48 }
  - { offsetInCU: 0x80FD, offset: 0x80FD, size: 0x8, addend: 0x0, symName: __ZNSt3__110__pop_heapB7v160006INS_17_ClassicAlgPolicyE7CompareNS_11__wrap_iterIP11reservationEEEEvT1_S7_RT0_NS_15iterator_traitsIS7_E15difference_typeE, symObjAddr: 0x3780, symBinAddr: 0x100005824, symSize: 0x164 }
  - { offsetInCU: 0x821A, offset: 0x821A, size: 0x8, addend: 0x0, symName: __ZNSt3__1eqB7v160006IP11reservationEEbRKNS_11__wrap_iterIT_EES7_, symObjAddr: 0x3BC4, symBinAddr: 0x100005C68, symSize: 0x48 }
  - { offsetInCU: 0x825D, offset: 0x825D, size: 0x8, addend: 0x0, symName: __ZNSt3__19__sift_upB7v160006INS_17_ClassicAlgPolicyER7CompareNS_11__wrap_iterIP11reservationEEEEvT1_S8_OT0_NS_15iterator_traitsIS8_E15difference_typeE, symObjAddr: 0x3C8C, symBinAddr: 0x100005D30, symSize: 0x24C }
  - { offsetInCU: 0x82FE, offset: 0x82FE, size: 0x8, addend: 0x0, symName: __ZNSt3__115__debug_db_swapB7v160006INS_12basic_stringIcNS_11char_traitsIcEENS_9allocatorIcEEEEEEvPT_S8_, symObjAddr: 0x3FD8, symBinAddr: 0x10000607C, symSize: 0x14 }
  - { offsetInCU: 0x833D, offset: 0x833D, size: 0x8, addend: 0x0, symName: __ZNSt3__1gtB7v160006IcNS_11char_traitsIcEENS_9allocatorIcEEEEbRKNS_12basic_stringIT_T0_T1_EESB_, symObjAddr: 0x4130, symBinAddr: 0x1000061D4, symSize: 0x30 }
  - { offsetInCU: 0x8395, offset: 0x8395, size: 0x8, addend: 0x0, symName: __ZNSt3__1ltB7v160006IcNS_11char_traitsIcEENS_9allocatorIcEEEEbRKNS_12basic_stringIT_T0_T1_EESB_, symObjAddr: 0x4160, symBinAddr: 0x100006204, symSize: 0x38 }
  - { offsetInCU: 0x8411, offset: 0x8411, size: 0x8, addend: 0x0, symName: __ZNSt3__118__constexpr_memcmpB7v160006IcEEiPKT_S3_m, symObjAddr: 0x43FC, symBinAddr: 0x1000064A0, symSize: 0x34 }
  - { offsetInCU: 0x8462, offset: 0x8462, size: 0x8, addend: 0x0, symName: __ZNSt3__19push_heapB7v160006INS_11__wrap_iterIP11reservationEE7CompareEEvT_S6_T0_, symObjAddr: 0x492C, symBinAddr: 0x1000069D0, symSize: 0x40 }
  - { offsetInCU: 0x84B8, offset: 0x84B8, size: 0x8, addend: 0x0, symName: __ZNSt3__13maxB7v160006ImEERKT_S3_S3_, symObjAddr: 0x4D74, symBinAddr: 0x100006E18, symSize: 0x2C }
  - { offsetInCU: 0x84FB, offset: 0x84FB, size: 0x8, addend: 0x0, symName: __ZNSt3__13maxB7v160006ImNS_6__lessImmEEEERKT_S5_S5_T0_, symObjAddr: 0x4DA0, symBinAddr: 0x100006E44, symSize: 0x54 }
  - { offsetInCU: 0x8555, offset: 0x8555, size: 0x8, addend: 0x0, symName: __ZNSt3__142__uninitialized_allocator_move_if_noexceptB7v160006INS_9allocatorI11reservationEENS_16reverse_iteratorIPS2_EES6_S6_EET2_RT_T0_T1_S7_, symObjAddr: 0x5020, symBinAddr: 0x1000070C4, symSize: 0x11C }
  - { offsetInCU: 0x85F5, offset: 0x85F5, size: 0x8, addend: 0x0, symName: __ZNSt3__14swapB7v160006IP11reservationEENS_9enable_ifIXaasr21is_move_constructibleIT_EE5valuesr18is_move_assignableIS4_EE5valueEvE4typeERS4_S7_, symObjAddr: 0x513C, symBinAddr: 0x1000071E0, symSize: 0x3C }
  - { offsetInCU: 0x8646, offset: 0x8646, size: 0x8, addend: 0x0, symName: __ZNSt3__122__make_exception_guardB7v160006INS_29_AllocatorDestroyRangeReverseINS_9allocatorI11reservationEENS_16reverse_iteratorIPS3_EEEEEENS_28__exception_guard_exceptionsIT_EESA_, symObjAddr: 0x5178, symBinAddr: 0x10000721C, symSize: 0x4C }
  - { offsetInCU: 0x867C, offset: 0x867C, size: 0x8, addend: 0x0, symName: __ZNSt3__119__allocator_destroyB7v160006INS_9allocatorI11reservationEENS_16reverse_iteratorINS4_IPS2_EEEES7_EEvRT_T0_T1_, symObjAddr: 0x5454, symBinAddr: 0x1000074F8, symSize: 0x70 }
  - { offsetInCU: 0x86E1, offset: 0x86E1, size: 0x8, addend: 0x0, symName: __ZNSt3__1neB7v160006INS_16reverse_iteratorIP11reservationEES4_EEbRKNS1_IT_EERKNS1_IT0_EE, symObjAddr: 0x5500, symBinAddr: 0x1000075A4, symSize: 0x60 }
  - { offsetInCU: 0x872D, offset: 0x872D, size: 0x8, addend: 0x0, symName: __ZNSt3__112__to_addressB7v160006INS_16reverse_iteratorINS1_IP11reservationEEEEvEENS_5decayIDTclsr19__to_address_helperIT_EE6__callclsr3stdE7declvalIRKS7_EEEEE4typeES9_, symObjAddr: 0x5560, symBinAddr: 0x100007604, symSize: 0x24 }
  - { offsetInCU: 0x878C, offset: 0x878C, size: 0x8, addend: 0x0, symName: __ZNSt3__111__push_heapB7v160006INS_17_ClassicAlgPolicyENS_11__wrap_iterIP11reservationEE7CompareEEvT0_S7_RT1_, symObjAddr: 0x58A0, symBinAddr: 0x100007944, symSize: 0x5C }
  - { offsetInCU: 0x8B00, offset: 0x8B00, size: 0x8, addend: 0x0, symName: __ZSt28__throw_bad_array_new_lengthB7v160006v, symObjAddr: 0x2E9C, symBinAddr: 0x100004F40, symSize: 0x34 }
  - { offsetInCU: 0x91AF, offset: 0x91AF, size: 0x8, addend: 0x0, symName: __ZNSt3__16vectorI11reservationNS_9allocatorIS1_EEE26__swap_out_circular_bufferERNS_14__split_bufferIS1_RS3_EE, symObjAddr: 0x4C30, symBinAddr: 0x100006CD4, symSize: 0x118 }
  - { offsetInCU: 0xB5D7, offset: 0xB5D7, size: 0x8, addend: 0x0, symName: __ZN4bookC2EiNSt3__112basic_stringIcNS0_11char_traitsIcEENS0_9allocatorIcEEEES6_16BookAvailability, symObjAddr: 0x0, symBinAddr: 0x1000020A4, symSize: 0x108 }
  - { offsetInCU: 0xB63D, offset: 0xB63D, size: 0x8, addend: 0x0, symName: __ZNSt3__112basic_stringIcNS_11char_traitsIcEENS_9allocatorIcEEEC1B7v160006Ev, symObjAddr: 0x108, symBinAddr: 0x1000021AC, symSize: 0x2C }
  - { offsetInCU: 0xB667, offset: 0xB667, size: 0x8, addend: 0x0, symName: __ZNSt3__114priority_queueI11reservationNS_6vectorIS1_NS_9allocatorIS1_EEEE7CompareEC1B7v160006Ev, symObjAddr: 0x134, symBinAddr: 0x1000021D8, symSize: 0x2C }
  - { offsetInCU: 0xB691, offset: 0xB691, size: 0x8, addend: 0x0, symName: __ZNSt3__114priority_queueI11reservationNS_6vectorIS1_NS_9allocatorIS1_EEEE7CompareEaSB7v160006EOS7_, symObjAddr: 0x160, symBinAddr: 0x100002204, symSize: 0x34 }
  - { offsetInCU: 0xB6C6, offset: 0xB6C6, size: 0x8, addend: 0x0, symName: __ZNSt3__114priority_queueI11reservationNS_6vectorIS1_NS_9allocatorIS1_EEEE7CompareED1Ev, symObjAddr: 0x194, symBinAddr: 0x100002238, symSize: 0x2C }
  - { offsetInCU: 0xB6F3, offset: 0xB6F3, size: 0x8, addend: 0x0, symName: __ZN4bookC1EiNSt3__112basic_stringIcNS0_11char_traitsIcEENS0_9allocatorIcEEEES6_16BookAvailability, symObjAddr: 0x1C0, symBinAddr: 0x100002264, symSize: 0x4C }
  - { offsetInCU: 0xB759, offset: 0xB759, size: 0x8, addend: 0x0, symName: __ZN4bookC2EiNSt3__112basic_stringIcNS0_11char_traitsIcEENS0_9allocatorIcEEEES6_S6_, symObjAddr: 0x20C, symBinAddr: 0x1000022B0, symSize: 0x118 }
  - { offsetInCU: 0xB7FB, offset: 0xB7FB, size: 0x8, addend: 0x0, symName: __ZN9utilities13status_toenumENSt3__112basic_stringIcNS0_11char_traitsIcEENS0_9allocatorIcEEEE, symObjAddr: 0x324, symBinAddr: 0x1000023C8, symSize: 0x8C }
  - { offsetInCU: 0xB81F, offset: 0xB81F, size: 0x8, addend: 0x0, symName: __ZN4bookC1EiNSt3__112basic_stringIcNS0_11char_traitsIcEENS0_9allocatorIcEEEES6_S6_, symObjAddr: 0x3B0, symBinAddr: 0x100002454, symSize: 0x118 }
  - { offsetInCU: 0xB886, offset: 0xB886, size: 0x8, addend: 0x0, symName: __ZN4bookD2Ev, symObjAddr: 0x4C8, symBinAddr: 0x10000256C, symSize: 0x48 }
  - { offsetInCU: 0xB8B2, offset: 0xB8B2, size: 0x8, addend: 0x0, symName: __ZN4bookD1Ev, symObjAddr: 0x510, symBinAddr: 0x1000025B4, symSize: 0x2C }
  - { offsetInCU: 0xB8DE, offset: 0xB8DE, size: 0x8, addend: 0x0, symName: __ZN4book9PrintBookEv, symObjAddr: 0x53C, symBinAddr: 0x1000025E0, symSize: 0x14C }
  - { offsetInCU: 0xB906, offset: 0xB906, size: 0x8, addend: 0x0, symName: __ZNSt3__113basic_ostreamIcNS_11char_traitsIcEEElsB7v160006EPFRS3_S4_E, symObjAddr: 0x6D0, symBinAddr: 0x100002774, symSize: 0x2C }
  - { offsetInCU: 0xB93A, offset: 0xB93A, size: 0x8, addend: 0x0, symName: __ZN9utilities15status_tostringE16BookAvailability, symObjAddr: 0x7A0, symBinAddr: 0x100002844, symSize: 0x98 }
  - { offsetInCU: 0xB95D, offset: 0xB95D, size: 0x8, addend: 0x0, symName: __ZN4book17printReservationsEv, symObjAddr: 0x838, symBinAddr: 0x1000028DC, symSize: 0x158 }
  - { offsetInCU: 0xB9A7, offset: 0xB9A7, size: 0x8, addend: 0x0, symName: __ZNSt3__114priority_queueI11reservationNS_6vectorIS1_NS_9allocatorIS1_EEEE7CompareEC1B7v160006ERKS7_, symObjAddr: 0x990, symBinAddr: 0x100002A34, symSize: 0x34 }
  - { offsetInCU: 0xB9E0, offset: 0xB9E0, size: 0x8, addend: 0x0, symName: __ZNKSt3__114priority_queueI11reservationNS_6vectorIS1_NS_9allocatorIS1_EEEE7CompareE5emptyB7v160006Ev, symObjAddr: 0x9C4, symBinAddr: 0x100002A68, symSize: 0x28 }
  - { offsetInCU: 0xBA06, offset: 0xBA06, size: 0x8, addend: 0x0, symName: __ZNKSt3__114priority_queueI11reservationNS_6vectorIS1_NS_9allocatorIS1_EEEE7CompareE3topB7v160006Ev, symObjAddr: 0x9EC, symBinAddr: 0x100002A90, symSize: 0x24 }
  - { offsetInCU: 0xBA2C, offset: 0xBA2C, size: 0x8, addend: 0x0, symName: __ZN11reservationC1ERKS_, symObjAddr: 0xA10, symBinAddr: 0x100002AB4, symSize: 0x34 }
  - { offsetInCU: 0xBA61, offset: 0xBA61, size: 0x8, addend: 0x0, symName: __ZNSt3__114priority_queueI11reservationNS_6vectorIS1_NS_9allocatorIS1_EEEE7CompareE3popEv, symObjAddr: 0xA44, symBinAddr: 0x100002AE8, symSize: 0x50 }
  - { offsetInCU: 0xBA89, offset: 0xBA89, size: 0x8, addend: 0x0, symName: __ZN11reservationD1Ev, symObjAddr: 0xA94, symBinAddr: 0x100002B38, symSize: 0x2C }
  - { offsetInCU: 0xBAB5, offset: 0xBAB5, size: 0x8, addend: 0x0, symName: __ZN4book14AddReservationE11reservation, symObjAddr: 0xAC0, symBinAddr: 0x100002B64, symSize: 0x7C }
  - { offsetInCU: 0xBAEC, offset: 0xBAEC, size: 0x8, addend: 0x0, symName: __ZNSt3__114priority_queueI11reservationNS_6vectorIS1_NS_9allocatorIS1_EEEE7CompareE4pushERKS1_, symObjAddr: 0xB3C, symBinAddr: 0x100002BE0, symSize: 0x58 }
  - { offsetInCU: 0xBB23, offset: 0xBB23, size: 0x8, addend: 0x0, symName: __ZNSt3__114priority_queueI11reservationNS_6vectorIS1_NS_9allocatorIS1_EEEE7CompareED2Ev, symObjAddr: 0xB94, symBinAddr: 0x100002C38, symSize: 0x2C }
  - { offsetInCU: 0xBB50, offset: 0xBB50, size: 0x8, addend: 0x0, symName: __ZNSt3__16vectorI11reservationNS_9allocatorIS1_EEED1B7v160006Ev, symObjAddr: 0xBC0, symBinAddr: 0x100002C64, symSize: 0x2C }
  - { offsetInCU: 0xBB7A, offset: 0xBB7A, size: 0x8, addend: 0x0, symName: __ZNSt3__16vectorI11reservationNS_9allocatorIS1_EEED2B7v160006Ev, symObjAddr: 0xBEC, symBinAddr: 0x100002C90, symSize: 0x44 }
  - { offsetInCU: 0xBBA4, offset: 0xBBA4, size: 0x8, addend: 0x0, symName: __ZNSt3__16vectorI11reservationNS_9allocatorIS1_EEE16__destroy_vectorC1ERS4_, symObjAddr: 0xC30, symBinAddr: 0x100002CD4, symSize: 0x34 }
  - { offsetInCU: 0xBBDD, offset: 0xBBDD, size: 0x8, addend: 0x0, symName: __ZNSt3__16vectorI11reservationNS_9allocatorIS1_EEE16__destroy_vectorclB7v160006Ev, symObjAddr: 0xC70, symBinAddr: 0x100002D14, symSize: 0x9C }
  - { offsetInCU: 0xBC03, offset: 0xBC03, size: 0x8, addend: 0x0, symName: __ZNSt3__16vectorI11reservationNS_9allocatorIS1_EEE16__destroy_vectorC2ERS4_, symObjAddr: 0xD0C, symBinAddr: 0x100002DB0, symSize: 0x20 }
  - { offsetInCU: 0xBC3C, offset: 0xBC3C, size: 0x8, addend: 0x0, symName: __ZNKSt3__16vectorI11reservationNS_9allocatorIS1_EEE17__annotate_deleteB7v160006Ev, symObjAddr: 0xD2C, symBinAddr: 0x100002DD0, symSize: 0xB8 }
  - { offsetInCU: 0xBC62, offset: 0xBC62, size: 0x8, addend: 0x0, symName: __ZNSt3__16vectorI11reservationNS_9allocatorIS1_EEE7__clearB7v160006Ev, symObjAddr: 0xDF4, symBinAddr: 0x100002E98, symSize: 0x28 }
  - { offsetInCU: 0xBC88, offset: 0xBC88, size: 0x8, addend: 0x0, symName: __ZNSt3__116allocator_traitsINS_9allocatorI11reservationEEE10deallocateB7v160006ERS3_PS2_m, symObjAddr: 0xE1C, symBinAddr: 0x100002EC0, symSize: 0x34 }
  - { offsetInCU: 0xBCCA, offset: 0xBCCA, size: 0x8, addend: 0x0, symName: __ZNSt3__16vectorI11reservationNS_9allocatorIS1_EEE7__allocB7v160006Ev, symObjAddr: 0xE50, symBinAddr: 0x100002EF4, symSize: 0x28 }
  - { offsetInCU: 0xBCF0, offset: 0xBCF0, size: 0x8, addend: 0x0, symName: __ZNKSt3__16vectorI11reservationNS_9allocatorIS1_EEE8capacityB7v160006Ev, symObjAddr: 0xE78, symBinAddr: 0x100002F1C, symSize: 0x40 }
  - { offsetInCU: 0xBD16, offset: 0xBD16, size: 0x8, addend: 0x0, symName: __ZNKSt3__16vectorI11reservationNS_9allocatorIS1_EEE31__annotate_contiguous_containerB7v160006EPKvS6_S6_S6_, symObjAddr: 0xEB8, symBinAddr: 0x100002F5C, symSize: 0x20 }
  - { offsetInCU: 0xBD6C, offset: 0xBD6C, size: 0x8, addend: 0x0, symName: __ZNKSt3__16vectorI11reservationNS_9allocatorIS1_EEE4dataB7v160006Ev, symObjAddr: 0xED8, symBinAddr: 0x100002F7C, symSize: 0x28 }
  - { offsetInCU: 0xBD92, offset: 0xBD92, size: 0x8, addend: 0x0, symName: __ZNKSt3__16vectorI11reservationNS_9allocatorIS1_EEE4sizeB7v160006Ev, symObjAddr: 0xF00, symBinAddr: 0x100002FA4, symSize: 0x28 }
  - { offsetInCU: 0xBDB8, offset: 0xBDB8, size: 0x8, addend: 0x0, symName: __ZNSt3__16vectorI11reservationNS_9allocatorIS1_EEE22__base_destruct_at_endB7v160006EPS1_, symObjAddr: 0xF3C, symBinAddr: 0x100002FE0, symSize: 0x8C }
  - { offsetInCU: 0xBDFC, offset: 0xBDFC, size: 0x8, addend: 0x0, symName: __ZNSt3__116allocator_traitsINS_9allocatorI11reservationEEE7destroyB7v160006IS2_vEEvRS3_PT_, symObjAddr: 0xFC8, symBinAddr: 0x10000306C, symSize: 0x2C }
  - { offsetInCU: 0xBE39, offset: 0xBE39, size: 0x8, addend: 0x0, symName: __ZNSt3__19allocatorI11reservationE7destroyB7v160006EPS1_, symObjAddr: 0xFF4, symBinAddr: 0x100003098, symSize: 0x28 }
  - { offsetInCU: 0xBE6D, offset: 0xBE6D, size: 0x8, addend: 0x0, symName: __ZNSt3__19allocatorI11reservationE10deallocateB7v160006EPS1_m, symObjAddr: 0x101C, symBinAddr: 0x1000030C0, symSize: 0x40 }
  - { offsetInCU: 0xBEAF, offset: 0xBEAF, size: 0x8, addend: 0x0, symName: __ZNSt3__117__compressed_pairIP11reservationNS_9allocatorIS1_EEE6secondB7v160006Ev, symObjAddr: 0x1184, symBinAddr: 0x100003228, symSize: 0x24 }
  - { offsetInCU: 0xBED5, offset: 0xBED5, size: 0x8, addend: 0x0, symName: __ZNSt3__122__compressed_pair_elemINS_9allocatorI11reservationEELi1ELb1EE5__getB7v160006Ev, symObjAddr: 0x11A8, symBinAddr: 0x10000324C, symSize: 0x14 }
  - { offsetInCU: 0xBEFB, offset: 0xBEFB, size: 0x8, addend: 0x0, symName: __ZNKSt3__16vectorI11reservationNS_9allocatorIS1_EEE9__end_capB7v160006Ev, symObjAddr: 0x11BC, symBinAddr: 0x100003260, symSize: 0x28 }
  - { offsetInCU: 0xBF21, offset: 0xBF21, size: 0x8, addend: 0x0, symName: __ZNKSt3__117__compressed_pairIP11reservationNS_9allocatorIS1_EEE5firstB7v160006Ev, symObjAddr: 0x11E4, symBinAddr: 0x100003288, symSize: 0x24 }
  - { offsetInCU: 0xBF47, offset: 0xBF47, size: 0x8, addend: 0x0, symName: __ZNKSt3__122__compressed_pair_elemIP11reservationLi0ELb0EE5__getB7v160006Ev, symObjAddr: 0x1208, symBinAddr: 0x1000032AC, symSize: 0x14 }
  - { offsetInCU: 0xBF6D, offset: 0xBF6D, size: 0x8, addend: 0x0, symName: __ZNSt3__111char_traitsIcE6lengthEPKc, symObjAddr: 0x12C8, symBinAddr: 0x10000336C, symSize: 0x34 }
  - { offsetInCU: 0xBF90, offset: 0xBF90, size: 0x8, addend: 0x0, symName: __ZNKSt3__112basic_stringIcNS_11char_traitsIcEENS_9allocatorIcEEE4sizeB7v160006Ev, symObjAddr: 0x12FC, symBinAddr: 0x1000033A0, symSize: 0x54 }
  - { offsetInCU: 0xBFB6, offset: 0xBFB6, size: 0x8, addend: 0x0, symName: __ZNKSt3__112basic_stringIcNS_11char_traitsIcEENS_9allocatorIcEEE9__is_longB7v160006Ev, symObjAddr: 0x1374, symBinAddr: 0x100003418, symSize: 0x38 }
  - { offsetInCU: 0xBFDC, offset: 0xBFDC, size: 0x8, addend: 0x0, symName: __ZNKSt3__112basic_stringIcNS_11char_traitsIcEENS_9allocatorIcEEE15__get_long_sizeB7v160006Ev, symObjAddr: 0x13AC, symBinAddr: 0x100003450, symSize: 0x28 }
  - { offsetInCU: 0xC002, offset: 0xC002, size: 0x8, addend: 0x0, symName: __ZNKSt3__112basic_stringIcNS_11char_traitsIcEENS_9allocatorIcEEE16__get_short_sizeB7v160006Ev, symObjAddr: 0x13D4, symBinAddr: 0x100003478, symSize: 0x34 }
  - { offsetInCU: 0xC028, offset: 0xC028, size: 0x8, addend: 0x0, symName: __ZNKSt3__117__compressed_pairINS_12basic_stringIcNS_11char_traitsIcEENS_9allocatorIcEEE5__repES5_E5firstB7v160006Ev, symObjAddr: 0x1408, symBinAddr: 0x1000034AC, symSize: 0x24 }
  - { offsetInCU: 0xC04E, offset: 0xC04E, size: 0x8, addend: 0x0, symName: __ZNKSt3__122__compressed_pair_elemINS_12basic_stringIcNS_11char_traitsIcEENS_9allocatorIcEEE5__repELi0ELb0EE5__getB7v160006Ev, symObjAddr: 0x142C, symBinAddr: 0x1000034D0, symSize: 0x14 }
  - { offsetInCU: 0xC079, offset: 0xC079, size: 0x8, addend: 0x0, symName: __ZNSt3__112basic_stringIcNS_11char_traitsIcEENS_9allocatorIcEEEC1B7v160006IDnEEPKc, symObjAddr: 0x1440, symBinAddr: 0x1000034E4, symSize: 0x34 }
  - { offsetInCU: 0xC0B7, offset: 0xC0B7, size: 0x8, addend: 0x0, symName: __ZNSt3__112basic_stringIcNS_11char_traitsIcEENS_9allocatorIcEEEC2B7v160006IDnEEPKc, symObjAddr: 0x1474, symBinAddr: 0x100003518, symSize: 0x60 }
  - { offsetInCU: 0xC0FA, offset: 0xC0FA, size: 0x8, addend: 0x0, symName: __ZNSt3__117__compressed_pairINS_12basic_stringIcNS_11char_traitsIcEENS_9allocatorIcEEE5__repES5_EC1B7v160006INS_18__default_init_tagESA_EEOT_OT0_, symObjAddr: 0x14D4, symBinAddr: 0x100003578, symSize: 0x3C }
  - { offsetInCU: 0xC152, offset: 0xC152, size: 0x8, addend: 0x0, symName: __ZNSt3__117__compressed_pairINS_12basic_stringIcNS_11char_traitsIcEENS_9allocatorIcEEE5__repES5_EC2B7v160006INS_18__default_init_tagESA_EEOT_OT0_, symObjAddr: 0x1520, symBinAddr: 0x1000035C4, symSize: 0x3C }
  - { offsetInCU: 0xC1AA, offset: 0xC1AA, size: 0x8, addend: 0x0, symName: __ZNSt3__122__compressed_pair_elemINS_12basic_stringIcNS_11char_traitsIcEENS_9allocatorIcEEE5__repELi0ELb0EEC2B7v160006ENS_18__default_init_tagE, symObjAddr: 0x155C, symBinAddr: 0x100003600, symSize: 0x14 }
  - { offsetInCU: 0xC1DF, offset: 0xC1DF, size: 0x8, addend: 0x0, symName: __ZNSt3__122__compressed_pair_elemINS_9allocatorIcEELi1ELb1EEC2B7v160006ENS_18__default_init_tagE, symObjAddr: 0x1570, symBinAddr: 0x100003614, symSize: 0x2C }
  - { offsetInCU: 0xC214, offset: 0xC214, size: 0x8, addend: 0x0, symName: __ZNSt3__19allocatorIcEC2B7v160006Ev, symObjAddr: 0x159C, symBinAddr: 0x100003640, symSize: 0x2C }
  - { offsetInCU: 0xC23E, offset: 0xC23E, size: 0x8, addend: 0x0, symName: __ZNSt3__116__non_trivial_ifILb1ENS_9allocatorIcEEEC2B7v160006Ev, symObjAddr: 0x15C8, symBinAddr: 0x10000366C, symSize: 0x14 }
  - { offsetInCU: 0xC268, offset: 0xC268, size: 0x8, addend: 0x0, symName: __ZN11reservationC2ERKS_, symObjAddr: 0x15DC, symBinAddr: 0x100003680, symSize: 0x48 }
  - { offsetInCU: 0xC29D, offset: 0xC29D, size: 0x8, addend: 0x0, symName: __ZN11reservationD2Ev, symObjAddr: 0x1624, symBinAddr: 0x1000036C8, symSize: 0x30 }
  - { offsetInCU: 0xC2C9, offset: 0xC2C9, size: 0x8, addend: 0x0, symName: __ZNSt3__112basic_stringIcNS_11char_traitsIcEENS_9allocatorIcEEEC2B7v160006Ev, symObjAddr: 0x1654, symBinAddr: 0x1000036F8, symSize: 0x50 }
  - { offsetInCU: 0xC2F3, offset: 0xC2F3, size: 0x8, addend: 0x0, symName: __ZNSt3__112basic_stringIcNS_11char_traitsIcEENS_9allocatorIcEEE14__default_initB7v160006Ev, symObjAddr: 0x16A4, symBinAddr: 0x100003748, symSize: 0x40 }
  - { offsetInCU: 0xC319, offset: 0xC319, size: 0x8, addend: 0x0, symName: __ZNSt3__117__compressed_pairINS_12basic_stringIcNS_11char_traitsIcEENS_9allocatorIcEEE5__repES5_E5firstB7v160006Ev, symObjAddr: 0x16E4, symBinAddr: 0x100003788, symSize: 0x24 }
  - { offsetInCU: 0xC33F, offset: 0xC33F, size: 0x8, addend: 0x0, symName: __ZNSt3__122__compressed_pair_elemINS_12basic_stringIcNS_11char_traitsIcEENS_9allocatorIcEEE5__repELi0ELb0EE5__getB7v160006Ev, symObjAddr: 0x1708, symBinAddr: 0x1000037AC, symSize: 0x14 }
  - { offsetInCU: 0xC365, offset: 0xC365, size: 0x8, addend: 0x0, symName: __ZNSt3__114priority_queueI11reservationNS_6vectorIS1_NS_9allocatorIS1_EEEE7CompareEC2B7v160006Ev, symObjAddr: 0x171C, symBinAddr: 0x1000037C0, symSize: 0x2C }
  - { offsetInCU: 0xC38F, offset: 0xC38F, size: 0x8, addend: 0x0, symName: __ZNSt3__16vectorI11reservationNS_9allocatorIS1_EEEC1B7v160006Ev, symObjAddr: 0x1748, symBinAddr: 0x1000037EC, symSize: 0x2C }
  - { offsetInCU: 0xC3B9, offset: 0xC3B9, size: 0x8, addend: 0x0, symName: __ZNSt3__16vectorI11reservationNS_9allocatorIS1_EEEC2B7v160006Ev, symObjAddr: 0x1774, symBinAddr: 0x100003818, symSize: 0x58 }
  - { offsetInCU: 0xC3E8, offset: 0xC3E8, size: 0x8, addend: 0x0, symName: __ZNSt3__117__compressed_pairIP11reservationNS_9allocatorIS1_EEEC1B7v160006IDnNS_18__default_init_tagEEEOT_OT0_, symObjAddr: 0x17CC, symBinAddr: 0x100003870, symSize: 0x3C }
  - { offsetInCU: 0xC440, offset: 0xC440, size: 0x8, addend: 0x0, symName: __ZNSt3__117__compressed_pairIP11reservationNS_9allocatorIS1_EEEC2B7v160006IDnNS_18__default_init_tagEEEOT_OT0_, symObjAddr: 0x1818, symBinAddr: 0x1000038BC, symSize: 0x40 }
  - { offsetInCU: 0xC498, offset: 0xC498, size: 0x8, addend: 0x0, symName: __ZNSt3__122__compressed_pair_elemIP11reservationLi0ELb0EEC2B7v160006IDnvEEOT_, symObjAddr: 0x1858, symBinAddr: 0x1000038FC, symSize: 0x1C }
  - { offsetInCU: 0xC4DA, offset: 0xC4DA, size: 0x8, addend: 0x0, symName: __ZNSt3__122__compressed_pair_elemINS_9allocatorI11reservationEELi1ELb1EEC2B7v160006ENS_18__default_init_tagE, symObjAddr: 0x1874, symBinAddr: 0x100003918, symSize: 0x2C }
  - { offsetInCU: 0xC50F, offset: 0xC50F, size: 0x8, addend: 0x0, symName: __ZNSt3__19allocatorI11reservationEC2B7v160006Ev, symObjAddr: 0x18A0, symBinAddr: 0x100003944, symSize: 0x2C }
  - { offsetInCU: 0xC539, offset: 0xC539, size: 0x8, addend: 0x0, symName: __ZNSt3__116__non_trivial_ifILb1ENS_9allocatorI11reservationEEEC2B7v160006Ev, symObjAddr: 0x18CC, symBinAddr: 0x100003970, symSize: 0x14 }
  - { offsetInCU: 0xC563, offset: 0xC563, size: 0x8, addend: 0x0, symName: __ZNSt3__16vectorI11reservationNS_9allocatorIS1_EEEaSB7v160006EOS4_, symObjAddr: 0x18E0, symBinAddr: 0x100003984, symSize: 0x34 }
  - { offsetInCU: 0xC59A, offset: 0xC59A, size: 0x8, addend: 0x0, symName: __ZNSt3__16vectorI11reservationNS_9allocatorIS1_EEE13__move_assignERS4_NS_17integral_constantIbLb1EEE, symObjAddr: 0x1914, symBinAddr: 0x1000039B8, symSize: 0xAC }
  - { offsetInCU: 0xC5DD, offset: 0xC5DD, size: 0x8, addend: 0x0, symName: __ZNSt3__16vectorI11reservationNS_9allocatorIS1_EEE13__vdeallocateEv, symObjAddr: 0x19C0, symBinAddr: 0x100003A64, symSize: 0x8C }
  - { offsetInCU: 0xC605, offset: 0xC605, size: 0x8, addend: 0x0, symName: __ZNSt3__16vectorI11reservationNS_9allocatorIS1_EEE19__move_assign_allocB7v160006ERS4_, symObjAddr: 0x1A4C, symBinAddr: 0x100003AF0, symSize: 0x2C }
  - { offsetInCU: 0xC63A, offset: 0xC63A, size: 0x8, addend: 0x0, symName: __ZNSt3__16vectorI11reservationNS_9allocatorIS1_EEE9__end_capB7v160006Ev, symObjAddr: 0x1A78, symBinAddr: 0x100003B1C, symSize: 0x28 }
  - { offsetInCU: 0xC660, offset: 0xC660, size: 0x8, addend: 0x0, symName: __ZNSt3__16vectorI11reservationNS_9allocatorIS1_EEE5clearB7v160006Ev, symObjAddr: 0x1AB4, symBinAddr: 0x100003B58, symSize: 0x54 }
  - { offsetInCU: 0xC695, offset: 0xC695, size: 0x8, addend: 0x0, symName: __ZNKSt3__16vectorI11reservationNS_9allocatorIS1_EEE17__annotate_shrinkB7v160006Em, symObjAddr: 0x1B08, symBinAddr: 0x100003BAC, symSize: 0xB4 }
  - { offsetInCU: 0xC6CA, offset: 0xC6CA, size: 0x8, addend: 0x0, symName: __ZNSt3__16vectorI11reservationNS_9allocatorIS1_EEE19__move_assign_allocB7v160006ERS4_NS_17integral_constantIbLb1EEE, symObjAddr: 0x1BCC, symBinAddr: 0x100003C70, symSize: 0x38 }
  - { offsetInCU: 0xC70B, offset: 0xC70B, size: 0x8, addend: 0x0, symName: __ZNSt3__117__compressed_pairIP11reservationNS_9allocatorIS1_EEE5firstB7v160006Ev, symObjAddr: 0x1C04, symBinAddr: 0x100003CA8, symSize: 0x24 }
  - { offsetInCU: 0xC731, offset: 0xC731, size: 0x8, addend: 0x0, symName: __ZNSt3__122__compressed_pair_elemIP11reservationLi0ELb0EE5__getB7v160006Ev, symObjAddr: 0x1C28, symBinAddr: 0x100003CCC, symSize: 0x14 }
  - { offsetInCU: 0xC775, offset: 0xC775, size: 0x8, addend: 0x0, symName: __ZNKSt3__113basic_ostreamIcNS_11char_traitsIcEEE6sentrycvbB7v160006Ev, symObjAddr: 0x1E28, symBinAddr: 0x100003ECC, symSize: 0x1C }
  - { offsetInCU: 0xC79B, offset: 0xC79B, size: 0x8, addend: 0x0, symName: __ZNSt3__119ostreambuf_iteratorIcNS_11char_traitsIcEEEC1B7v160006ERNS_13basic_ostreamIcS2_EE, symObjAddr: 0x2084, symBinAddr: 0x100004128, symSize: 0x34 }
  - { offsetInCU: 0xC7D3, offset: 0xC7D3, size: 0x8, addend: 0x0, symName: __ZNKSt3__18ios_base5flagsB7v160006Ev, symObjAddr: 0x20B8, symBinAddr: 0x10000415C, symSize: 0x18 }
  - { offsetInCU: 0xC7FB, offset: 0xC7FB, size: 0x8, addend: 0x0, symName: __ZNKSt3__19basic_iosIcNS_11char_traitsIcEEE4fillB7v160006Ev, symObjAddr: 0x20D0, symBinAddr: 0x100004174, symSize: 0x64 }
  - { offsetInCU: 0xC823, offset: 0xC823, size: 0x8, addend: 0x0, symName: __ZNKSt3__119ostreambuf_iteratorIcNS_11char_traitsIcEEE6failedB7v160006Ev, symObjAddr: 0x2134, symBinAddr: 0x1000041D8, symSize: 0x24 }
  - { offsetInCU: 0xC849, offset: 0xC849, size: 0x8, addend: 0x0, symName: __ZNSt3__19basic_iosIcNS_11char_traitsIcEEE8setstateB7v160006Ej, symObjAddr: 0x2158, symBinAddr: 0x1000041FC, symSize: 0x2C }
  - { offsetInCU: 0xC87E, offset: 0xC87E, size: 0x8, addend: 0x0, symName: __ZNKSt3__18ios_base5widthB7v160006Ev, symObjAddr: 0x2184, symBinAddr: 0x100004228, symSize: 0x18 }
  - { offsetInCU: 0xC8A6, offset: 0xC8A6, size: 0x8, addend: 0x0, symName: __ZNSt3__115basic_streambufIcNS_11char_traitsIcEEE5sputnB7v160006EPKcl, symObjAddr: 0x219C, symBinAddr: 0x100004240, symSize: 0x3C }
  - { offsetInCU: 0xC8E8, offset: 0xC8E8, size: 0x8, addend: 0x0, symName: __ZNSt3__112basic_stringIcNS_11char_traitsIcEENS_9allocatorIcEEEC1B7v160006Emc, symObjAddr: 0x21D8, symBinAddr: 0x10000427C, symSize: 0x3C }
  - { offsetInCU: 0xC930, offset: 0xC930, size: 0x8, addend: 0x0, symName: __ZNSt3__112basic_stringIcNS_11char_traitsIcEENS_9allocatorIcEEE4dataB7v160006Ev, symObjAddr: 0x2214, symBinAddr: 0x1000042B8, symSize: 0x28 }
  - { offsetInCU: 0xC956, offset: 0xC956, size: 0x8, addend: 0x0, symName: __ZNSt3__18ios_base5widthB7v160006El, symObjAddr: 0x223C, symBinAddr: 0x1000042E0, symSize: 0x2C }
  - { offsetInCU: 0xC99C, offset: 0xC99C, size: 0x8, addend: 0x0, symName: __ZNSt3__112basic_stringIcNS_11char_traitsIcEENS_9allocatorIcEEEC2B7v160006Emc, symObjAddr: 0x2268, symBinAddr: 0x10000430C, symSize: 0x54 }
  - { offsetInCU: 0xC9E4, offset: 0xC9E4, size: 0x8, addend: 0x0, symName: __ZNSt3__112basic_stringIcNS_11char_traitsIcEENS_9allocatorIcEEE13__get_pointerB7v160006Ev, symObjAddr: 0x22D0, symBinAddr: 0x100004374, symSize: 0x54 }
  - { offsetInCU: 0xCA0A, offset: 0xCA0A, size: 0x8, addend: 0x0, symName: __ZNSt3__112basic_stringIcNS_11char_traitsIcEENS_9allocatorIcEEE18__get_long_pointerB7v160006Ev, symObjAddr: 0x2324, symBinAddr: 0x1000043C8, symSize: 0x28 }
  - { offsetInCU: 0xCA30, offset: 0xCA30, size: 0x8, addend: 0x0, symName: __ZNSt3__112basic_stringIcNS_11char_traitsIcEENS_9allocatorIcEEE19__get_short_pointerB7v160006Ev, symObjAddr: 0x234C, symBinAddr: 0x1000043F0, symSize: 0x28 }
  - { offsetInCU: 0xCA56, offset: 0xCA56, size: 0x8, addend: 0x0, symName: __ZNSt3__114pointer_traitsIPcE10pointer_toB7v160006ERc, symObjAddr: 0x2374, symBinAddr: 0x100004418, symSize: 0x14 }
  - { offsetInCU: 0xCA79, offset: 0xCA79, size: 0x8, addend: 0x0, symName: __ZNSt3__119ostreambuf_iteratorIcNS_11char_traitsIcEEEC2B7v160006ERNS_13basic_ostreamIcS2_EE, symObjAddr: 0x2388, symBinAddr: 0x10000442C, symSize: 0x54 }
  - { offsetInCU: 0xCAB1, offset: 0xCAB1, size: 0x8, addend: 0x0, symName: __ZNKSt3__19basic_iosIcNS_11char_traitsIcEEE5rdbufB7v160006Ev, symObjAddr: 0x23DC, symBinAddr: 0x100004480, symSize: 0x24 }
  - { offsetInCU: 0xCAD9, offset: 0xCAD9, size: 0x8, addend: 0x0, symName: __ZNKSt3__18ios_base5rdbufB7v160006Ev, symObjAddr: 0x2400, symBinAddr: 0x1000044A4, symSize: 0x18 }
  - { offsetInCU: 0xCAFF, offset: 0xCAFF, size: 0x8, addend: 0x0, symName: __ZNSt3__111char_traitsIcE11eq_int_typeEii, symObjAddr: 0x2418, symBinAddr: 0x1000044BC, symSize: 0x28 }
  - { offsetInCU: 0xCB30, offset: 0xCB30, size: 0x8, addend: 0x0, symName: __ZNSt3__111char_traitsIcE3eofEv, symObjAddr: 0x2440, symBinAddr: 0x1000044E4, symSize: 0x8 }
  - { offsetInCU: 0xCB44, offset: 0xCB44, size: 0x8, addend: 0x0, symName: __ZNKSt3__19basic_iosIcNS_11char_traitsIcEEE5widenB7v160006Ec, symObjAddr: 0x2448, symBinAddr: 0x1000044EC, symSize: 0x84 }
  - { offsetInCU: 0xCBB2, offset: 0xCBB2, size: 0x8, addend: 0x0, symName: __ZNKSt3__15ctypeIcE5widenB7v160006Ec, symObjAddr: 0x24F8, symBinAddr: 0x10000459C, symSize: 0x38 }
  - { offsetInCU: 0xCBE7, offset: 0xCBE7, size: 0x8, addend: 0x0, symName: __ZNSt3__18ios_base8setstateB7v160006Ej, symObjAddr: 0x2530, symBinAddr: 0x1000045D4, symSize: 0x34 }
  - { offsetInCU: 0xCC1E, offset: 0xCC1E, size: 0x8, addend: 0x0, symName: __ZNKSt3__112basic_stringIcNS_11char_traitsIcEENS_9allocatorIcEEE4dataB7v160006Ev, symObjAddr: 0x2564, symBinAddr: 0x100004608, symSize: 0x28 }
  - { offsetInCU: 0xCC44, offset: 0xCC44, size: 0x8, addend: 0x0, symName: __ZNKSt3__112basic_stringIcNS_11char_traitsIcEENS_9allocatorIcEEE13__get_pointerB7v160006Ev, symObjAddr: 0x25A0, symBinAddr: 0x100004644, symSize: 0x54 }
  - { offsetInCU: 0xCC6A, offset: 0xCC6A, size: 0x8, addend: 0x0, symName: __ZNKSt3__112basic_stringIcNS_11char_traitsIcEENS_9allocatorIcEEE18__get_long_pointerB7v160006Ev, symObjAddr: 0x25F4, symBinAddr: 0x100004698, symSize: 0x28 }
  - { offsetInCU: 0xCC90, offset: 0xCC90, size: 0x8, addend: 0x0, symName: __ZNKSt3__112basic_stringIcNS_11char_traitsIcEENS_9allocatorIcEEE19__get_short_pointerB7v160006Ev, symObjAddr: 0x261C, symBinAddr: 0x1000046C0, symSize: 0x28 }
  - { offsetInCU: 0xCCB6, offset: 0xCCB6, size: 0x8, addend: 0x0, symName: __ZNSt3__114pointer_traitsIPKcE10pointer_toB7v160006ERS1_, symObjAddr: 0x2644, symBinAddr: 0x1000046E8, symSize: 0x14 }
  - { offsetInCU: 0xCCD9, offset: 0xCCD9, size: 0x8, addend: 0x0, symName: __ZNSt3__114priority_queueI11reservationNS_6vectorIS1_NS_9allocatorIS1_EEEE7CompareEC2B7v160006ERKS7_, symObjAddr: 0x2658, symBinAddr: 0x1000046FC, symSize: 0x34 }
  - { offsetInCU: 0xCD12, offset: 0xCD12, size: 0x8, addend: 0x0, symName: __ZNSt3__16vectorI11reservationNS_9allocatorIS1_EEEC1ERKS4_, symObjAddr: 0x268C, symBinAddr: 0x100004730, symSize: 0x34 }
  - { offsetInCU: 0xCD4D, offset: 0xCD4D, size: 0x8, addend: 0x0, symName: __ZNSt3__16vectorI11reservationNS_9allocatorIS1_EEEC2ERKS4_, symObjAddr: 0x26C0, symBinAddr: 0x100004764, symSize: 0x110 }
  - { offsetInCU: 0xCDB6, offset: 0xCDB6, size: 0x8, addend: 0x0, symName: __ZNSt3__116allocator_traitsINS_9allocatorI11reservationEEE37select_on_container_copy_constructionB7v160006IS3_vvEES3_RKS3_, symObjAddr: 0x27D0, symBinAddr: 0x100004874, symSize: 0x10 }
  - { offsetInCU: 0xCDE5, offset: 0xCDE5, size: 0x8, addend: 0x0, symName: __ZNKSt3__16vectorI11reservationNS_9allocatorIS1_EEE7__allocB7v160006Ev, symObjAddr: 0x27E0, symBinAddr: 0x100004884, symSize: 0x28 }
  - { offsetInCU: 0xCE10, offset: 0xCE10, size: 0x8, addend: 0x0, symName: __ZNSt3__117__compressed_pairIP11reservationNS_9allocatorIS1_EEEC1B7v160006IDnS4_EEOT_OT0_, symObjAddr: 0x2808, symBinAddr: 0x1000048AC, symSize: 0x3C }
  - { offsetInCU: 0xCE68, offset: 0xCE68, size: 0x8, addend: 0x0, symName: __ZNSt3__16vectorI11reservationNS_9allocatorIS1_EEE11__vallocateB7v160006Em, symObjAddr: 0x2884, symBinAddr: 0x100004928, symSize: 0xAC }
  - { offsetInCU: 0xCEAC, offset: 0xCEAC, size: 0x8, addend: 0x0, symName: __ZNSt3__16vectorI11reservationNS_9allocatorIS1_EEE18__construct_at_endIPS1_Li0EEEvT_S7_m, symObjAddr: 0x2930, symBinAddr: 0x1000049D4, symSize: 0x8C }
  - { offsetInCU: 0xCF1F, offset: 0xCF1F, size: 0x8, addend: 0x0, symName: __ZNSt3__128__exception_guard_exceptionsINS_6vectorI11reservationNS_9allocatorIS2_EEE16__destroy_vectorEE10__completeB7v160006Ev, symObjAddr: 0x29BC, symBinAddr: 0x100004A60, symSize: 0x1C }
  - { offsetInCU: 0xCF45, offset: 0xCF45, size: 0x8, addend: 0x0, symName: __ZNSt3__128__exception_guard_exceptionsINS_6vectorI11reservationNS_9allocatorIS2_EEE16__destroy_vectorEED1B7v160006Ev, symObjAddr: 0x29D8, symBinAddr: 0x100004A7C, symSize: 0x2C }
  - { offsetInCU: 0xCF6F, offset: 0xCF6F, size: 0x8, addend: 0x0, symName: __ZNKSt3__117__compressed_pairIP11reservationNS_9allocatorIS1_EEE6secondB7v160006Ev, symObjAddr: 0x2A04, symBinAddr: 0x100004AA8, symSize: 0x24 }
  - { offsetInCU: 0xCF95, offset: 0xCF95, size: 0x8, addend: 0x0, symName: __ZNKSt3__122__compressed_pair_elemINS_9allocatorI11reservationEELi1ELb1EE5__getB7v160006Ev, symObjAddr: 0x2A28, symBinAddr: 0x100004ACC, symSize: 0x14 }
  - { offsetInCU: 0xCFBB, offset: 0xCFBB, size: 0x8, addend: 0x0, symName: __ZNSt3__117__compressed_pairIP11reservationNS_9allocatorIS1_EEEC2B7v160006IDnS4_EEOT_OT0_, symObjAddr: 0x2A3C, symBinAddr: 0x100004AE0, symSize: 0x44 }
  - { offsetInCU: 0xD013, offset: 0xD013, size: 0x8, addend: 0x0, symName: __ZNSt3__122__compressed_pair_elemINS_9allocatorI11reservationEELi1ELb1EEC2B7v160006IS3_vEEOT_, symObjAddr: 0x2A80, symBinAddr: 0x100004B24, symSize: 0x18 }
  - { offsetInCU: 0xD055, offset: 0xD055, size: 0x8, addend: 0x0, symName: __ZNSt3__128__exception_guard_exceptionsINS_6vectorI11reservationNS_9allocatorIS2_EEE16__destroy_vectorEEC1B7v160006ES6_, symObjAddr: 0x2A98, symBinAddr: 0x100004B3C, symSize: 0x34 }
  - { offsetInCU: 0xD08D, offset: 0xD08D, size: 0x8, addend: 0x0, symName: __ZNSt3__128__exception_guard_exceptionsINS_6vectorI11reservationNS_9allocatorIS2_EEE16__destroy_vectorEEC2B7v160006ES6_, symObjAddr: 0x2ACC, symBinAddr: 0x100004B70, symSize: 0x24 }
  - { offsetInCU: 0xD0C5, offset: 0xD0C5, size: 0x8, addend: 0x0, symName: __ZNKSt3__16vectorI11reservationNS_9allocatorIS1_EEE8max_sizeEv, symObjAddr: 0x2AF0, symBinAddr: 0x100004B94, symSize: 0x60 }
  - { offsetInCU: 0xD0ED, offset: 0xD0ED, size: 0x8, addend: 0x0, symName: __ZNKSt3__16vectorI11reservationNS_9allocatorIS1_EEE20__throw_length_errorB7v160006Ev, symObjAddr: 0x2B50, symBinAddr: 0x100004BF4, symSize: 0x1C }
  - { offsetInCU: 0xD113, offset: 0xD113, size: 0x8, addend: 0x0, symName: __ZNKSt3__16vectorI11reservationNS_9allocatorIS1_EEE14__annotate_newB7v160006Em, symObjAddr: 0x2BAC, symBinAddr: 0x100004C50, symSize: 0xAC }
  - { offsetInCU: 0xD148, offset: 0xD148, size: 0x8, addend: 0x0, symName: __ZNSt3__116allocator_traitsINS_9allocatorI11reservationEEE8max_sizeB7v160006IS3_vEEmRKS3_, symObjAddr: 0x2C84, symBinAddr: 0x100004D28, symSize: 0x24 }
  - { offsetInCU: 0xD176, offset: 0xD176, size: 0x8, addend: 0x0, symName: __ZNSt3__114numeric_limitsIlE3maxB7v160006Ev, symObjAddr: 0x2CA8, symBinAddr: 0x100004D4C, symSize: 0x14 }
  - { offsetInCU: 0xD19E, offset: 0xD19E, size: 0x8, addend: 0x0, symName: __ZNKSt3__16__lessImmEclB7v160006ERKmS3_, symObjAddr: 0x2D10, symBinAddr: 0x100004DB4, symSize: 0x34 }
  - { offsetInCU: 0xD1E0, offset: 0xD1E0, size: 0x8, addend: 0x0, symName: __ZNKSt3__19allocatorI11reservationE8max_sizeB7v160006Ev, symObjAddr: 0x2D44, symBinAddr: 0x100004DE8, symSize: 0x14 }
  - { offsetInCU: 0xD206, offset: 0xD206, size: 0x8, addend: 0x0, symName: __ZNSt3__123__libcpp_numeric_limitsIlLb1EE3maxB7v160006Ev, symObjAddr: 0x2D58, symBinAddr: 0x100004DFC, symSize: 0x8 }
  - { offsetInCU: 0xD21A, offset: 0xD21A, size: 0x8, addend: 0x0, symName: __ZNSt12length_errorC1B7v160006EPKc, symObjAddr: 0x2DC4, symBinAddr: 0x100004E68, symSize: 0x34 }
  - { offsetInCU: 0xD252, offset: 0xD252, size: 0x8, addend: 0x0, symName: __ZNSt12length_errorC2B7v160006EPKc, symObjAddr: 0x2DF8, symBinAddr: 0x100004E9C, symSize: 0x4C }
  - { offsetInCU: 0xD28A, offset: 0xD28A, size: 0x8, addend: 0x0, symName: __ZNSt3__19allocatorI11reservationE8allocateB7v160006Em, symObjAddr: 0x2E44, symBinAddr: 0x100004EE8, symSize: 0x58 }
  - { offsetInCU: 0xD2D7, offset: 0xD2D7, size: 0x8, addend: 0x0, symName: __ZNSt3__16vectorI11reservationNS_9allocatorIS1_EEE21_ConstructTransactionC1B7v160006ERS4_m, symObjAddr: 0x2F80, symBinAddr: 0x100005024, symSize: 0x3C }
  - { offsetInCU: 0xD31F, offset: 0xD31F, size: 0x8, addend: 0x0, symName: __ZNSt3__16vectorI11reservationNS_9allocatorIS1_EEE21_ConstructTransactionD1B7v160006Ev, symObjAddr: 0x30B0, symBinAddr: 0x100005154, symSize: 0x2C }
  - { offsetInCU: 0xD349, offset: 0xD349, size: 0x8, addend: 0x0, symName: __ZNSt3__16vectorI11reservationNS_9allocatorIS1_EEE21_ConstructTransactionC2B7v160006ERS4_m, symObjAddr: 0x30DC, symBinAddr: 0x100005180, symSize: 0x44 }
  - { offsetInCU: 0xD391, offset: 0xD391, size: 0x8, addend: 0x0, symName: __ZNSt3__129_AllocatorDestroyRangeReverseINS_9allocatorI11reservationEEPS2_EC1B7v160006ERS3_RS4_S7_, symObjAddr: 0x316C, symBinAddr: 0x100005210, symSize: 0x44 }
  - { offsetInCU: 0xD3E8, offset: 0xD3E8, size: 0x8, addend: 0x0, symName: __ZNSt3__116allocator_traitsINS_9allocatorI11reservationEEE9constructB7v160006IS2_JRS2_EvEEvRS3_PT_DpOT0_, symObjAddr: 0x31B0, symBinAddr: 0x100005254, symSize: 0x34 }
  - { offsetInCU: 0xD43F, offset: 0xD43F, size: 0x8, addend: 0x0, symName: __ZNSt3__128__exception_guard_exceptionsINS_29_AllocatorDestroyRangeReverseINS_9allocatorI11reservationEEPS3_EEE10__completeB7v160006Ev, symObjAddr: 0x31E4, symBinAddr: 0x100005288, symSize: 0x1C }
  - { offsetInCU: 0xD465, offset: 0xD465, size: 0x8, addend: 0x0, symName: __ZNSt3__128__exception_guard_exceptionsINS_29_AllocatorDestroyRangeReverseINS_9allocatorI11reservationEEPS3_EEED1B7v160006Ev, symObjAddr: 0x3200, symBinAddr: 0x1000052A4, symSize: 0x2C }
  - { offsetInCU: 0xD48F, offset: 0xD48F, size: 0x8, addend: 0x0, symName: __ZNSt3__128__exception_guard_exceptionsINS_29_AllocatorDestroyRangeReverseINS_9allocatorI11reservationEEPS3_EEEC1B7v160006ES6_, symObjAddr: 0x322C, symBinAddr: 0x1000052D0, symSize: 0x34 }
  - { offsetInCU: 0xD4C8, offset: 0xD4C8, size: 0x8, addend: 0x0, symName: __ZNSt3__128__exception_guard_exceptionsINS_29_AllocatorDestroyRangeReverseINS_9allocatorI11reservationEEPS3_EEEC2B7v160006ES6_, symObjAddr: 0x3260, symBinAddr: 0x100005304, symSize: 0x30 }
  - { offsetInCU: 0xD501, offset: 0xD501, size: 0x8, addend: 0x0, symName: __ZNSt3__129_AllocatorDestroyRangeReverseINS_9allocatorI11reservationEEPS2_EC2B7v160006ERS3_RS4_S7_, symObjAddr: 0x3290, symBinAddr: 0x100005334, symSize: 0x38 }
  - { offsetInCU: 0xD558, offset: 0xD558, size: 0x8, addend: 0x0, symName: __ZNSt3__19allocatorI11reservationE9constructB7v160006IS1_JRS1_EEEvPT_DpOT0_, symObjAddr: 0x32C8, symBinAddr: 0x10000536C, symSize: 0x30 }
  - { offsetInCU: 0xD5AE, offset: 0xD5AE, size: 0x8, addend: 0x0, symName: __ZNSt3__128__exception_guard_exceptionsINS_29_AllocatorDestroyRangeReverseINS_9allocatorI11reservationEEPS3_EEED2B7v160006Ev, symObjAddr: 0x32F8, symBinAddr: 0x10000539C, symSize: 0x50 }
  - { offsetInCU: 0xD5D8, offset: 0xD5D8, size: 0x8, addend: 0x0, symName: __ZNKSt3__129_AllocatorDestroyRangeReverseINS_9allocatorI11reservationEEPS2_EclB7v160006Ev, symObjAddr: 0x3348, symBinAddr: 0x1000053EC, symSize: 0x68 }
  - { offsetInCU: 0xD5FE, offset: 0xD5FE, size: 0x8, addend: 0x0, symName: __ZNSt3__116reverse_iteratorIP11reservationEC1B7v160006ES2_, symObjAddr: 0x3420, symBinAddr: 0x1000054C4, symSize: 0x34 }
  - { offsetInCU: 0xD636, offset: 0xD636, size: 0x8, addend: 0x0, symName: __ZNSt3__116reverse_iteratorIP11reservationEppB7v160006Ev, symObjAddr: 0x34C0, symBinAddr: 0x100005564, symSize: 0x20 }
  - { offsetInCU: 0xD65C, offset: 0xD65C, size: 0x8, addend: 0x0, symName: __ZNKSt3__116reverse_iteratorIP11reservationE4baseB7v160006Ev, symObjAddr: 0x34E0, symBinAddr: 0x100005584, symSize: 0x18 }
  - { offsetInCU: 0xD687, offset: 0xD687, size: 0x8, addend: 0x0, symName: __ZNSt3__119__to_address_helperINS_16reverse_iteratorIP11reservationEEvE6__callB7v160006ERKS4_, symObjAddr: 0x34F8, symBinAddr: 0x10000559C, symSize: 0x38 }
  - { offsetInCU: 0xD6AA, offset: 0xD6AA, size: 0x8, addend: 0x0, symName: __ZNKSt3__116reverse_iteratorIP11reservationEptB7v160006Ev, symObjAddr: 0x3530, symBinAddr: 0x1000055D4, symSize: 0x24 }
  - { offsetInCU: 0xD6D0, offset: 0xD6D0, size: 0x8, addend: 0x0, symName: __ZNKSt3__116reverse_iteratorIP11reservationEdeB7v160006Ev, symObjAddr: 0x3554, symBinAddr: 0x1000055F8, symSize: 0x28 }
  - { offsetInCU: 0xD704, offset: 0xD704, size: 0x8, addend: 0x0, symName: __ZNSt3__116reverse_iteratorIP11reservationEC2B7v160006ES2_, symObjAddr: 0x357C, symBinAddr: 0x100005620, symSize: 0x28 }
  - { offsetInCU: 0xD73C, offset: 0xD73C, size: 0x8, addend: 0x0, symName: __ZNSt3__16vectorI11reservationNS_9allocatorIS1_EEE21_ConstructTransactionD2B7v160006Ev, symObjAddr: 0x35A4, symBinAddr: 0x100005648, symSize: 0x20 }
  - { offsetInCU: 0xD766, offset: 0xD766, size: 0x8, addend: 0x0, symName: __ZNSt3__128__exception_guard_exceptionsINS_6vectorI11reservationNS_9allocatorIS2_EEE16__destroy_vectorEED2B7v160006Ev, symObjAddr: 0x35C4, symBinAddr: 0x100005668, symSize: 0x50 }
  - { offsetInCU: 0xD790, offset: 0xD790, size: 0x8, addend: 0x0, symName: __ZNKSt3__16vectorI11reservationNS_9allocatorIS1_EEE5emptyB7v160006Ev, symObjAddr: 0x3614, symBinAddr: 0x1000056B8, symSize: 0x28 }
  - { offsetInCU: 0xD7B6, offset: 0xD7B6, size: 0x8, addend: 0x0, symName: __ZNKSt3__16vectorI11reservationNS_9allocatorIS1_EEE5frontB7v160006Ev, symObjAddr: 0x363C, symBinAddr: 0x1000056E0, symSize: 0x18 }
  - { offsetInCU: 0xD7DC, offset: 0xD7DC, size: 0x8, addend: 0x0, symName: __ZNSt3__16vectorI11reservationNS_9allocatorIS1_EEE5beginB7v160006Ev, symObjAddr: 0x36AC, symBinAddr: 0x100005750, symSize: 0x30 }
  - { offsetInCU: 0xD804, offset: 0xD804, size: 0x8, addend: 0x0, symName: __ZNSt3__16vectorI11reservationNS_9allocatorIS1_EEE3endB7v160006Ev, symObjAddr: 0x36DC, symBinAddr: 0x100005780, symSize: 0x30 }
  - { offsetInCU: 0xD82C, offset: 0xD82C, size: 0x8, addend: 0x0, symName: __ZNSt3__16vectorI11reservationNS_9allocatorIS1_EEE8pop_backEv, symObjAddr: 0x370C, symBinAddr: 0x1000057B0, symSize: 0x2C }
  - { offsetInCU: 0xD854, offset: 0xD854, size: 0x8, addend: 0x0, symName: __ZNKSt3__111__wrap_iterIP11reservationE4baseB7v160006Ev, symObjAddr: 0x38E4, symBinAddr: 0x100005988, symSize: 0x18 }
  - { offsetInCU: 0xD87F, offset: 0xD87F, size: 0x8, addend: 0x0, symName: __ZNSt3__18_IterOpsINS_17_ClassicAlgPolicyEE11__iter_moveB7v160006IRNS_11__wrap_iterIP11reservationEEEENS_9enable_ifIXsr12is_referenceIDTdeclsr3stdE7declvalIRT_EEEEE5valueEDTclsr3stdE4movedeclsr3stdE7declvalISB_EEEEE4typeEOSA_, symObjAddr: 0x38FC, symBinAddr: 0x1000059A0, symSize: 0x28 }
  - { offsetInCU: 0xD8AB, offset: 0xD8AB, size: 0x8, addend: 0x0, symName: __ZN11reservationC1EOS_, symObjAddr: 0x3924, symBinAddr: 0x1000059C8, symSize: 0x34 }
  - { offsetInCU: 0xD8E0, offset: 0xD8E0, size: 0x8, addend: 0x0, symName: __ZNSt3__111__wrap_iterIP11reservationEmmB7v160006Ev, symObjAddr: 0x3BA4, symBinAddr: 0x100005C48, symSize: 0x20 }
  - { offsetInCU: 0xD906, offset: 0xD906, size: 0x8, addend: 0x0, symName: __ZNKSt3__111__wrap_iterIP11reservationEdeB7v160006Ev, symObjAddr: 0x3C0C, symBinAddr: 0x100005CB0, symSize: 0x18 }
  - { offsetInCU: 0xD92C, offset: 0xD92C, size: 0x8, addend: 0x0, symName: __ZN11reservationaSEOS_, symObjAddr: 0x3C24, symBinAddr: 0x100005CC8, symSize: 0x48 }
  - { offsetInCU: 0xD95D, offset: 0xD95D, size: 0x8, addend: 0x0, symName: __ZNSt3__111__wrap_iterIP11reservationEppB7v160006Ev, symObjAddr: 0x3C6C, symBinAddr: 0x100005D10, symSize: 0x20 }
  - { offsetInCU: 0xD983, offset: 0xD983, size: 0x8, addend: 0x0, symName: __ZNSt3__18_IterOpsINS_17_ClassicAlgPolicyEE25__validate_iter_referenceB7v160006IRNS_11__wrap_iterIP11reservationEEEEvv, symObjAddr: 0x3ED8, symBinAddr: 0x100005F7C, symSize: 0x4 }
  - { offsetInCU: 0xD9A1, offset: 0xD9A1, size: 0x8, addend: 0x0, symName: __ZN11reservationC2EOS_, symObjAddr: 0x3EDC, symBinAddr: 0x100005F80, symSize: 0x48 }
  - { offsetInCU: 0xD9D6, offset: 0xD9D6, size: 0x8, addend: 0x0, symName: __ZNSt3__112basic_stringIcNS_11char_traitsIcEENS_9allocatorIcEEEC1B7v160006EOS5_, symObjAddr: 0x3F24, symBinAddr: 0x100005FC8, symSize: 0x34 }
  - { offsetInCU: 0xDA0F, offset: 0xDA0F, size: 0x8, addend: 0x0, symName: __ZNSt3__112basic_stringIcNS_11char_traitsIcEENS_9allocatorIcEEEC2B7v160006EOS5_, symObjAddr: 0x3F58, symBinAddr: 0x100005FFC, symSize: 0x80 }
  - { offsetInCU: 0xDA48, offset: 0xDA48, size: 0x8, addend: 0x0, symName: __ZNSt3__111__wrap_iterIP11reservationEpLB7v160006El, symObjAddr: 0x3FEC, symBinAddr: 0x100006090, symSize: 0x28 }
  - { offsetInCU: 0xDA7C, offset: 0xDA7C, size: 0x8, addend: 0x0, symName: __ZN7CompareclE11reservationS0_, symObjAddr: 0x4014, symBinAddr: 0x1000060B8, symSize: 0xE0 }
  - { offsetInCU: 0xDAC0, offset: 0xDAC0, size: 0x8, addend: 0x0, symName: __ZNKSt3__111__wrap_iterIP11reservationEplB7v160006El, symObjAddr: 0x40F4, symBinAddr: 0x100006198, symSize: 0x3C }
  - { offsetInCU: 0xDB02, offset: 0xDB02, size: 0x8, addend: 0x0, symName: __ZNKSt3__112basic_stringIcNS_11char_traitsIcEENS_9allocatorIcEEE7compareB7v160006ERKS5_, symObjAddr: 0x4198, symBinAddr: 0x10000623C, symSize: 0x4C }
  - { offsetInCU: 0xDB39, offset: 0xDB39, size: 0x8, addend: 0x0, symName: __ZNKSt3__112basic_stringIcNS_11char_traitsIcEENS_9allocatorIcEEE7compareINS_17basic_string_viewIcS2_EEEENS_9enable_ifIXsr33__can_be_converted_to_string_viewIcS2_T_EE5valueEiE4typeERKSA_, symObjAddr: 0x41E4, symBinAddr: 0x100006288, symSize: 0x12C }
  - { offsetInCU: 0xDBB6, offset: 0xDBB6, size: 0x8, addend: 0x0, symName: __ZNKSt3__112basic_stringIcNS_11char_traitsIcEENS_9allocatorIcEEEcvNS_17basic_string_viewIcS2_EEB7v160006Ev, symObjAddr: 0x4310, symBinAddr: 0x1000063B4, symSize: 0x50 }
  - { offsetInCU: 0xDBDC, offset: 0xDBDC, size: 0x8, addend: 0x0, symName: __ZNKSt3__117basic_string_viewIcNS_11char_traitsIcEEE4sizeB7v160006Ev, symObjAddr: 0x4360, symBinAddr: 0x100006404, symSize: 0x18 }
  - { offsetInCU: 0xDC02, offset: 0xDC02, size: 0x8, addend: 0x0, symName: __ZNSt3__111char_traitsIcE7compareEPKcS3_m, symObjAddr: 0x4378, symBinAddr: 0x10000641C, symSize: 0x6C }
  - { offsetInCU: 0xDC41, offset: 0xDC41, size: 0x8, addend: 0x0, symName: __ZNKSt3__117basic_string_viewIcNS_11char_traitsIcEEE4dataB7v160006Ev, symObjAddr: 0x43E4, symBinAddr: 0x100006488, symSize: 0x18 }
  - { offsetInCU: 0xDC67, offset: 0xDC67, size: 0x8, addend: 0x0, symName: __ZNSt3__117basic_string_viewIcNS_11char_traitsIcEEEC1B7v160006EPKcm, symObjAddr: 0x4430, symBinAddr: 0x1000064D4, symSize: 0x3C }
  - { offsetInCU: 0xDCAF, offset: 0xDCAF, size: 0x8, addend: 0x0, symName: __ZNSt3__117basic_string_viewIcNS_11char_traitsIcEEEC2B7v160006EPKcm, symObjAddr: 0x446C, symBinAddr: 0x100006510, symSize: 0x50 }
  - { offsetInCU: 0xDCF7, offset: 0xDCF7, size: 0x8, addend: 0x0, symName: __ZNSt3__112basic_stringIcNS_11char_traitsIcEENS_9allocatorIcEEEaSB7v160006EOS5_, symObjAddr: 0x44BC, symBinAddr: 0x100006560, symSize: 0x34 }
  - { offsetInCU: 0xDD2C, offset: 0xDD2C, size: 0x8, addend: 0x0, symName: __ZNSt3__112basic_stringIcNS_11char_traitsIcEENS_9allocatorIcEEE13__move_assignB7v160006ERS5_NS_17integral_constantIbLb1EEE, symObjAddr: 0x44F0, symBinAddr: 0x100006594, symSize: 0xC8 }
  - { offsetInCU: 0xDD6F, offset: 0xDD6F, size: 0x8, addend: 0x0, symName: __ZNSt3__116allocator_traitsINS_9allocatorIcEEE10deallocateB7v160006ERS2_Pcm, symObjAddr: 0x45B8, symBinAddr: 0x10000665C, symSize: 0x34 }
  - { offsetInCU: 0xDDB1, offset: 0xDDB1, size: 0x8, addend: 0x0, symName: __ZNSt3__112basic_stringIcNS_11char_traitsIcEENS_9allocatorIcEEE7__allocB7v160006Ev, symObjAddr: 0x45EC, symBinAddr: 0x100006690, symSize: 0x24 }
  - { offsetInCU: 0xDDD7, offset: 0xDDD7, size: 0x8, addend: 0x0, symName: __ZNKSt3__112basic_stringIcNS_11char_traitsIcEENS_9allocatorIcEEE14__get_long_capB7v160006Ev, symObjAddr: 0x4610, symBinAddr: 0x1000066B4, symSize: 0x30 }
  - { offsetInCU: 0xDDFD, offset: 0xDDFD, size: 0x8, addend: 0x0, symName: __ZNSt3__112basic_stringIcNS_11char_traitsIcEENS_9allocatorIcEEE19__move_assign_allocB7v160006ERS5_, symObjAddr: 0x4640, symBinAddr: 0x1000066E4, symSize: 0x2C }
  - { offsetInCU: 0xDE32, offset: 0xDE32, size: 0x8, addend: 0x0, symName: __ZNSt3__112basic_stringIcNS_11char_traitsIcEENS_9allocatorIcEEE16__set_short_sizeB7v160006Em, symObjAddr: 0x466C, symBinAddr: 0x100006710, symSize: 0x78 }
  - { offsetInCU: 0xDE67, offset: 0xDE67, size: 0x8, addend: 0x0, symName: __ZNSt3__111char_traitsIcE6assignERcRKc, symObjAddr: 0x46E4, symBinAddr: 0x100006788, symSize: 0x24 }
  - { offsetInCU: 0xDE98, offset: 0xDE98, size: 0x8, addend: 0x0, symName: __ZNSt3__19allocatorIcE10deallocateB7v160006EPcm, symObjAddr: 0x4708, symBinAddr: 0x1000067AC, symSize: 0x40 }
  - { offsetInCU: 0xDEDA, offset: 0xDEDA, size: 0x8, addend: 0x0, symName: __ZNSt3__117__compressed_pairINS_12basic_stringIcNS_11char_traitsIcEENS_9allocatorIcEEE5__repES5_E6secondB7v160006Ev, symObjAddr: 0x4748, symBinAddr: 0x1000067EC, symSize: 0x24 }
  - { offsetInCU: 0xDF00, offset: 0xDF00, size: 0x8, addend: 0x0, symName: __ZNSt3__122__compressed_pair_elemINS_9allocatorIcEELi1ELb1EE5__getB7v160006Ev, symObjAddr: 0x476C, symBinAddr: 0x100006810, symSize: 0x14 }
  - { offsetInCU: 0xDF26, offset: 0xDF26, size: 0x8, addend: 0x0, symName: __ZNSt3__112basic_stringIcNS_11char_traitsIcEENS_9allocatorIcEEE19__move_assign_allocB7v160006ERS5_NS_17integral_constantIbLb1EEE, symObjAddr: 0x4780, symBinAddr: 0x100006824, symSize: 0x38 }
  - { offsetInCU: 0xDF67, offset: 0xDF67, size: 0x8, addend: 0x0, symName: __ZNSt3__16vectorI11reservationNS_9allocatorIS1_EEE11__make_iterB7v160006EPS1_, symObjAddr: 0x47B8, symBinAddr: 0x10000685C, symSize: 0x34 }
  - { offsetInCU: 0xDF9C, offset: 0xDF9C, size: 0x8, addend: 0x0, symName: __ZNSt3__111__wrap_iterIP11reservationEC1B7v160006EPKvS2_, symObjAddr: 0x47EC, symBinAddr: 0x100006890, symSize: 0x3C }
  - { offsetInCU: 0xDFE2, offset: 0xDFE2, size: 0x8, addend: 0x0, symName: __ZNSt3__111__wrap_iterIP11reservationEC2B7v160006EPKvS2_, symObjAddr: 0x4828, symBinAddr: 0x1000068CC, symSize: 0x24 }
  - { offsetInCU: 0xE028, offset: 0xE028, size: 0x8, addend: 0x0, symName: __ZNSt3__16vectorI11reservationNS_9allocatorIS1_EEE17__destruct_at_endB7v160006EPS1_, symObjAddr: 0x484C, symBinAddr: 0x1000068F0, symSize: 0x60 }
  - { offsetInCU: 0xE06C, offset: 0xE06C, size: 0x8, addend: 0x0, symName: __ZNSt3__16vectorI11reservationNS_9allocatorIS1_EEE27__invalidate_iterators_pastB7v160006EPS1_, symObjAddr: 0x48AC, symBinAddr: 0x100006950, symSize: 0x14 }
  - { offsetInCU: 0xE0A3, offset: 0xE0A3, size: 0x8, addend: 0x0, symName: __ZNSt3__16vectorI11reservationNS_9allocatorIS1_EEE9push_backB7v160006ERKS1_, symObjAddr: 0x48C0, symBinAddr: 0x100006964, symSize: 0x6C }
  - { offsetInCU: 0xE0DA, offset: 0xE0DA, size: 0x8, addend: 0x0, symName: __ZNSt3__16vectorI11reservationNS_9allocatorIS1_EEE22__construct_one_at_endB7v160006IJRKS1_EEEvDpOT_, symObjAddr: 0x496C, symBinAddr: 0x100006A10, symSize: 0x90 }
  - { offsetInCU: 0xE129, offset: 0xE129, size: 0x8, addend: 0x0, symName: __ZNSt3__16vectorI11reservationNS_9allocatorIS1_EEE21__push_back_slow_pathIRKS1_EEvOT_, symObjAddr: 0x49FC, symBinAddr: 0x100006AA0, symSize: 0xD8 }
  - { offsetInCU: 0xE187, offset: 0xE187, size: 0x8, addend: 0x0, symName: __ZNSt3__116allocator_traitsINS_9allocatorI11reservationEEE9constructB7v160006IS2_JRKS2_EvEEvRS3_PT_DpOT0_, symObjAddr: 0x4AD4, symBinAddr: 0x100006B78, symSize: 0x34 }
  - { offsetInCU: 0xE1DE, offset: 0xE1DE, size: 0x8, addend: 0x0, symName: __ZNSt3__19allocatorI11reservationE9constructB7v160006IS1_JRKS1_EEEvPT_DpOT0_, symObjAddr: 0x4B08, symBinAddr: 0x100006BAC, symSize: 0x30 }
  - { offsetInCU: 0xE234, offset: 0xE234, size: 0x8, addend: 0x0, symName: __ZNKSt3__16vectorI11reservationNS_9allocatorIS1_EEE11__recommendB7v160006Em, symObjAddr: 0x4B38, symBinAddr: 0x100006BDC, symSize: 0xB4 }
  - { offsetInCU: 0xE289, offset: 0xE289, size: 0x8, addend: 0x0, symName: __ZNSt3__114__split_bufferI11reservationRNS_9allocatorIS1_EEEC1EmmS4_, symObjAddr: 0x4BEC, symBinAddr: 0x100006C90, symSize: 0x44 }
  - { offsetInCU: 0xE2DF, offset: 0xE2DF, size: 0x8, addend: 0x0, symName: __ZNSt3__114__split_bufferI11reservationRNS_9allocatorIS1_EEED1Ev, symObjAddr: 0x4D48, symBinAddr: 0x100006DEC, symSize: 0x2C }
  - { offsetInCU: 0xE30B, offset: 0xE30B, size: 0x8, addend: 0x0, symName: __ZNSt3__114__split_bufferI11reservationRNS_9allocatorIS1_EEEC2EmmS4_, symObjAddr: 0x4DF4, symBinAddr: 0x100006E98, symSize: 0xD4 }
  - { offsetInCU: 0xE37E, offset: 0xE37E, size: 0x8, addend: 0x0, symName: __ZNSt3__117__compressed_pairIP11reservationRNS_9allocatorIS1_EEEC1B7v160006IDnS5_EEOT_OT0_, symObjAddr: 0x4EC8, symBinAddr: 0x100006F6C, symSize: 0x3C }
  - { offsetInCU: 0xE3D6, offset: 0xE3D6, size: 0x8, addend: 0x0, symName: __ZNSt3__114__split_bufferI11reservationRNS_9allocatorIS1_EEE7__allocB7v160006Ev, symObjAddr: 0x4F04, symBinAddr: 0x100006FA8, symSize: 0x28 }
  - { offsetInCU: 0xE3FC, offset: 0xE3FC, size: 0x8, addend: 0x0, symName: __ZNSt3__114__split_bufferI11reservationRNS_9allocatorIS1_EEE9__end_capB7v160006Ev, symObjAddr: 0x4F2C, symBinAddr: 0x100006FD0, symSize: 0x28 }
  - { offsetInCU: 0xE422, offset: 0xE422, size: 0x8, addend: 0x0, symName: __ZNSt3__117__compressed_pairIP11reservationRNS_9allocatorIS1_EEEC2B7v160006IDnS5_EEOT_OT0_, symObjAddr: 0x4F54, symBinAddr: 0x100006FF8, symSize: 0x48 }
  - { offsetInCU: 0xE47A, offset: 0xE47A, size: 0x8, addend: 0x0, symName: __ZNSt3__122__compressed_pair_elemIRNS_9allocatorI11reservationEELi1ELb0EEC2B7v160006IS4_vEEOT_, symObjAddr: 0x4F9C, symBinAddr: 0x100007040, symSize: 0x20 }
  - { offsetInCU: 0xE4BC, offset: 0xE4BC, size: 0x8, addend: 0x0, symName: __ZNSt3__117__compressed_pairIP11reservationRNS_9allocatorIS1_EEE6secondB7v160006Ev, symObjAddr: 0x4FBC, symBinAddr: 0x100007060, symSize: 0x28 }
  - { offsetInCU: 0xE4E2, offset: 0xE4E2, size: 0x8, addend: 0x0, symName: __ZNSt3__122__compressed_pair_elemIRNS_9allocatorI11reservationEELi1ELb0EE5__getB7v160006Ev, symObjAddr: 0x4FE4, symBinAddr: 0x100007088, symSize: 0x18 }
  - { offsetInCU: 0xE508, offset: 0xE508, size: 0x8, addend: 0x0, symName: __ZNSt3__117__compressed_pairIP11reservationRNS_9allocatorIS1_EEE5firstB7v160006Ev, symObjAddr: 0x4FFC, symBinAddr: 0x1000070A0, symSize: 0x24 }
  - { offsetInCU: 0xE52E, offset: 0xE52E, size: 0x8, addend: 0x0, symName: __ZNSt3__129_AllocatorDestroyRangeReverseINS_9allocatorI11reservationEENS_16reverse_iteratorIPS2_EEEC1B7v160006ERS3_RS6_S9_, symObjAddr: 0x51C4, symBinAddr: 0x100007268, symSize: 0x44 }
  - { offsetInCU: 0xE585, offset: 0xE585, size: 0x8, addend: 0x0, symName: __ZNSt3__116allocator_traitsINS_9allocatorI11reservationEEE9constructB7v160006IS2_JS2_EvEEvRS3_PT_DpOT0_, symObjAddr: 0x5208, symBinAddr: 0x1000072AC, symSize: 0x34 }
  - { offsetInCU: 0xE5DC, offset: 0xE5DC, size: 0x8, addend: 0x0, symName: __ZNSt3__128__exception_guard_exceptionsINS_29_AllocatorDestroyRangeReverseINS_9allocatorI11reservationEENS_16reverse_iteratorIPS3_EEEEE10__completeB7v160006Ev, symObjAddr: 0x523C, symBinAddr: 0x1000072E0, symSize: 0x1C }
  - { offsetInCU: 0xE602, offset: 0xE602, size: 0x8, addend: 0x0, symName: __ZNSt3__128__exception_guard_exceptionsINS_29_AllocatorDestroyRangeReverseINS_9allocatorI11reservationEENS_16reverse_iteratorIPS3_EEEEED1B7v160006Ev, symObjAddr: 0x5258, symBinAddr: 0x1000072FC, symSize: 0x2C }
  - { offsetInCU: 0xE62C, offset: 0xE62C, size: 0x8, addend: 0x0, symName: __ZNSt3__128__exception_guard_exceptionsINS_29_AllocatorDestroyRangeReverseINS_9allocatorI11reservationEENS_16reverse_iteratorIPS3_EEEEEC1B7v160006ES8_, symObjAddr: 0x5284, symBinAddr: 0x100007328, symSize: 0x34 }
  - { offsetInCU: 0xE665, offset: 0xE665, size: 0x8, addend: 0x0, symName: __ZNSt3__128__exception_guard_exceptionsINS_29_AllocatorDestroyRangeReverseINS_9allocatorI11reservationEENS_16reverse_iteratorIPS3_EEEEEC2B7v160006ES8_, symObjAddr: 0x52B8, symBinAddr: 0x10000735C, symSize: 0x30 }
  - { offsetInCU: 0xE69E, offset: 0xE69E, size: 0x8, addend: 0x0, symName: __ZNSt3__129_AllocatorDestroyRangeReverseINS_9allocatorI11reservationEENS_16reverse_iteratorIPS2_EEEC2B7v160006ERS3_RS6_S9_, symObjAddr: 0x52E8, symBinAddr: 0x10000738C, symSize: 0x38 }
  - { offsetInCU: 0xE6F5, offset: 0xE6F5, size: 0x8, addend: 0x0, symName: __ZNSt3__19allocatorI11reservationE9constructB7v160006IS1_JS1_EEEvPT_DpOT0_, symObjAddr: 0x5320, symBinAddr: 0x1000073C4, symSize: 0x30 }
  - { offsetInCU: 0xE74B, offset: 0xE74B, size: 0x8, addend: 0x0, symName: __ZNSt3__128__exception_guard_exceptionsINS_29_AllocatorDestroyRangeReverseINS_9allocatorI11reservationEENS_16reverse_iteratorIPS3_EEEEED2B7v160006Ev, symObjAddr: 0x5350, symBinAddr: 0x1000073F4, symSize: 0x50 }
  - { offsetInCU: 0xE775, offset: 0xE775, size: 0x8, addend: 0x0, symName: __ZNKSt3__129_AllocatorDestroyRangeReverseINS_9allocatorI11reservationEENS_16reverse_iteratorIPS2_EEEclB7v160006Ev, symObjAddr: 0x53A0, symBinAddr: 0x100007444, symSize: 0xB4 }
  - { offsetInCU: 0xE79C, offset: 0xE79C, size: 0x8, addend: 0x0, symName: __ZNSt3__116reverse_iteratorINS0_IP11reservationEEEC1B7v160006ES3_, symObjAddr: 0x54C4, symBinAddr: 0x100007568, symSize: 0x3C }
  - { offsetInCU: 0xE7D4, offset: 0xE7D4, size: 0x8, addend: 0x0, symName: __ZNSt3__116reverse_iteratorINS0_IP11reservationEEEppB7v160006Ev, symObjAddr: 0x5584, symBinAddr: 0x100007628, symSize: 0x30 }
  - { offsetInCU: 0xE7FA, offset: 0xE7FA, size: 0x8, addend: 0x0, symName: __ZNKSt3__116reverse_iteratorINS0_IP11reservationEEE4baseB7v160006Ev, symObjAddr: 0x55B4, symBinAddr: 0x100007658, symSize: 0x24 }
  - { offsetInCU: 0xE825, offset: 0xE825, size: 0x8, addend: 0x0, symName: __ZNSt3__119__to_address_helperINS_16reverse_iteratorINS1_IP11reservationEEEEvE6__callB7v160006ERKS5_, symObjAddr: 0x55D8, symBinAddr: 0x10000767C, symSize: 0x38 }
  - { offsetInCU: 0xE848, offset: 0xE848, size: 0x8, addend: 0x0, symName: __ZNKSt3__116reverse_iteratorINS0_IP11reservationEEEptB7v160006Ev, symObjAddr: 0x5610, symBinAddr: 0x1000076B4, symSize: 0x24 }
  - { offsetInCU: 0xE86E, offset: 0xE86E, size: 0x8, addend: 0x0, symName: __ZNKSt3__116reverse_iteratorINS0_IP11reservationEEEdeB7v160006Ev, symObjAddr: 0x5634, symBinAddr: 0x1000076D8, symSize: 0x34 }
  - { offsetInCU: 0xE8A2, offset: 0xE8A2, size: 0x8, addend: 0x0, symName: __ZNSt3__116reverse_iteratorIP11reservationEmmB7v160006Ev, symObjAddr: 0x5668, symBinAddr: 0x10000770C, symSize: 0x20 }
  - { offsetInCU: 0xE8C8, offset: 0xE8C8, size: 0x8, addend: 0x0, symName: __ZNSt3__116reverse_iteratorINS0_IP11reservationEEEC2B7v160006ES3_, symObjAddr: 0x5688, symBinAddr: 0x10000772C, symSize: 0x2C }
  - { offsetInCU: 0xE900, offset: 0xE900, size: 0x8, addend: 0x0, symName: __ZNSt3__114__split_bufferI11reservationRNS_9allocatorIS1_EEED2Ev, symObjAddr: 0x56B4, symBinAddr: 0x100007758, symSize: 0x8C }
  - { offsetInCU: 0xE92C, offset: 0xE92C, size: 0x8, addend: 0x0, symName: __ZNSt3__114__split_bufferI11reservationRNS_9allocatorIS1_EEE5clearB7v160006Ev, symObjAddr: 0x5740, symBinAddr: 0x1000077E4, symSize: 0x28 }
  - { offsetInCU: 0xE952, offset: 0xE952, size: 0x8, addend: 0x0, symName: __ZNKSt3__114__split_bufferI11reservationRNS_9allocatorIS1_EEE8capacityB7v160006Ev, symObjAddr: 0x5768, symBinAddr: 0x10000780C, symSize: 0x40 }
  - { offsetInCU: 0xE978, offset: 0xE978, size: 0x8, addend: 0x0, symName: __ZNSt3__114__split_bufferI11reservationRNS_9allocatorIS1_EEE17__destruct_at_endB7v160006EPS1_, symObjAddr: 0x57A8, symBinAddr: 0x10000784C, symSize: 0x2C }
  - { offsetInCU: 0xE9AC, offset: 0xE9AC, size: 0x8, addend: 0x0, symName: __ZNSt3__114__split_bufferI11reservationRNS_9allocatorIS1_EEE17__destruct_at_endB7v160006EPS1_NS_17integral_constantIbLb0EEE, symObjAddr: 0x57D4, symBinAddr: 0x100007878, symSize: 0x80 }
  - { offsetInCU: 0xE9ED, offset: 0xE9ED, size: 0x8, addend: 0x0, symName: __ZNKSt3__114__split_bufferI11reservationRNS_9allocatorIS1_EEE9__end_capB7v160006Ev, symObjAddr: 0x5854, symBinAddr: 0x1000078F8, symSize: 0x28 }
  - { offsetInCU: 0xEA13, offset: 0xEA13, size: 0x8, addend: 0x0, symName: __ZNKSt3__117__compressed_pairIP11reservationRNS_9allocatorIS1_EEE5firstB7v160006Ev, symObjAddr: 0x587C, symBinAddr: 0x100007920, symSize: 0x24 }
  - { offsetInCU: 0x5435, offset: 0x13F7B, size: 0x8, addend: 0x0, symName: __ZNSt3__118__debug_db_erase_cB7v160006INS_6vectorIiNS_9allocatorIiEEEEEEvPT_, symObjAddr: 0x284C, symBinAddr: 0x100008790, symSize: 0x10 }
  - { offsetInCU: 0x5466, offset: 0x13FAC, size: 0x8, addend: 0x0, symName: __ZNSt3__112__to_addressB7v160006IiEEPT_S2_, symObjAddr: 0x2968, symBinAddr: 0x1000088AC, symSize: 0x14 }
  - { offsetInCU: 0x5514, offset: 0x1405A, size: 0x8, addend: 0x0, symName: __ZNSt3__119__debug_db_insert_cB7v160006INS_6vectorIiNS_9allocatorIiEEEEEEvPT_, symObjAddr: 0x4B44, symBinAddr: 0x100008AF8, symSize: 0x10 }
  - { offsetInCU: 0x5545, offset: 0x1408B, size: 0x8, addend: 0x0, symName: __ZNSt3__119__allocate_at_leastB7v160006INS_9allocatorIiEEEENS_19__allocation_resultINS_16allocator_traitsIT_E7pointerEEERS5_m, symObjAddr: 0x53EC, symBinAddr: 0x100009320, symSize: 0x40 }
  - { offsetInCU: 0x5588, offset: 0x140CE, size: 0x8, addend: 0x0, symName: __ZNSt3__142__uninitialized_allocator_move_if_noexceptB7v160006INS_9allocatorIiEENS_16reverse_iteratorIPiEES5_ivEET1_RT_T0_S9_S6_, symObjAddr: 0x55A0, symBinAddr: 0x1000094D4, symSize: 0x78 }
  - { offsetInCU: 0x5606, offset: 0x1414C, size: 0x8, addend: 0x0, symName: __ZNSt3__14swapB7v160006IPiEENS_9enable_ifIXaasr21is_move_constructibleIT_EE5valuesr18is_move_assignableIS3_EE5valueEvE4typeERS3_S6_, symObjAddr: 0x5664, symBinAddr: 0x100009598, symSize: 0x3C }
  - { offsetInCU: 0x5657, offset: 0x1419D, size: 0x8, addend: 0x0, symName: __ZNSt3__125__debug_db_invalidate_allB7v160006INS_6vectorIiNS_9allocatorIiEEEEEEvPT_, symObjAddr: 0x574C, symBinAddr: 0x100009680, symSize: 0x10 }
  - { offsetInCU: 0x5688, offset: 0x141CE, size: 0x8, addend: 0x0, symName: __ZNSt3__14moveB7v160006INS_16reverse_iteratorIPiEES3_EET0_T_S5_S4_, symObjAddr: 0x575C, symBinAddr: 0x100009690, symSize: 0x78 }
  - { offsetInCU: 0x56E2, offset: 0x14228, size: 0x8, addend: 0x0, symName: __ZNSt3__16__moveB7v160006INS_17_ClassicAlgPolicyENS_16reverse_iteratorIPiEES4_S4_EENS_4pairIT0_T2_EES6_T1_S7_, symObjAddr: 0x57D4, symBinAddr: 0x100009708, symSize: 0x64 }
  - { offsetInCU: 0x574E, offset: 0x14294, size: 0x8, addend: 0x0, symName: __ZNSt3__123__dispatch_copy_or_moveB7v160006INS_17_ClassicAlgPolicyENS_11__move_loopIS1_EENS_14__move_trivialENS_16reverse_iteratorIPiEES7_S7_EENS_4pairIT2_T4_EES9_T3_SA_, symObjAddr: 0x5838, symBinAddr: 0x10000976C, symSize: 0x64 }
  - { offsetInCU: 0x57CC, offset: 0x14312, size: 0x8, addend: 0x0, symName: __ZNSt3__121__unwrap_and_dispatchB7v160006INS_10__overloadINS_11__move_loopINS_17_ClassicAlgPolicyEEENS_14__move_trivialEEENS_16reverse_iteratorIPiEES9_S9_Li0EEENS_4pairIT0_T2_EESB_T1_SC_, symObjAddr: 0x589C, symBinAddr: 0x1000097D0, symSize: 0x12C }
  - { offsetInCU: 0x585C, offset: 0x143A2, size: 0x8, addend: 0x0, symName: __ZNSt3__114__unwrap_rangeB7v160006INS_16reverse_iteratorIPiEES3_EENS_4pairIT0_S5_EET_S7_, symObjAddr: 0x59C8, symBinAddr: 0x1000098FC, symSize: 0x84 }
  - { offsetInCU: 0x59CE, offset: 0x14514, size: 0x8, addend: 0x0, symName: __ZNSt3__113__unwrap_iterB7v160006INS_16reverse_iteratorIPiEENS_18__unwrap_iter_implIS3_Lb0EEELi0EEEDTclsrT0_8__unwrapclsr3stdE7declvalIT_EEEES7_, symObjAddr: 0x5AEC, symBinAddr: 0x100009A20, symSize: 0x44 }
  - { offsetInCU: 0x5A12, offset: 0x14558, size: 0x8, addend: 0x0, symName: __ZNSt3__19make_pairB7v160006INS_16reverse_iteratorIPiEES3_EENS_4pairINS_18__unwrap_ref_decayIT_E4typeENS5_IT0_E4typeEEEOS6_OS9_, symObjAddr: 0x5B30, symBinAddr: 0x100009A64, symSize: 0x38 }
  - { offsetInCU: 0x5A61, offset: 0x145A7, size: 0x8, addend: 0x0, symName: __ZNSt3__114__rewrap_rangeB7v160006INS_16reverse_iteratorIPiEES3_EET_S4_T0_, symObjAddr: 0x5B68, symBinAddr: 0x100009A9C, symSize: 0x5C }
  - { offsetInCU: 0x5AAD, offset: 0x145F3, size: 0x8, addend: 0x0, symName: __ZNSt3__113__rewrap_iterB7v160006INS_16reverse_iteratorIPiEES3_NS_18__unwrap_iter_implIS3_Lb0EEEEET_S6_T0_, symObjAddr: 0x5BC4, symBinAddr: 0x100009AF8, symSize: 0x74 }
  - { offsetInCU: 0x5B02, offset: 0x14648, size: 0x8, addend: 0x0, symName: __ZNSt3__1neB7v160006IPiS1_EEbRKNS_16reverse_iteratorIT_EERKNS2_IT0_EE, symObjAddr: 0x5C38, symBinAddr: 0x100009B6C, symSize: 0x48 }
  - { offsetInCU: 0x6013, offset: 0x14B59, size: 0x8, addend: 0x0, symName: __ZNSt3__16vectorIiNS_9allocatorIiEEE26__swap_out_circular_bufferERNS_14__split_bufferIiRS2_EE, symObjAddr: 0x5004, symBinAddr: 0x100008FB8, symSize: 0x118 }
  - { offsetInCU: 0x83CA, offset: 0x16F10, size: 0x8, addend: 0x0, symName: __ZN12GatorLibrary9PrintBookEi, symObjAddr: 0x0, symBinAddr: 0x1000079A0, symSize: 0x6C }
  - { offsetInCU: 0x840E, offset: 0x16F54, size: 0x8, addend: 0x0, symName: __ZN12GatorLibrary10PrintBooksEii, symObjAddr: 0xF0, symBinAddr: 0x100007A0C, symSize: 0x74 }
  - { offsetInCU: 0x846E, offset: 0x16FB4, size: 0x8, addend: 0x0, symName: __ZN12GatorLibrary15FindClosestBookEi, symObjAddr: 0x164, symBinAddr: 0x100007A80, symSize: 0xD4 }
  - { offsetInCU: 0x84CE, offset: 0x17014, size: 0x8, addend: 0x0, symName: __ZNKSt3__16vectorIiNS_9allocatorIiEEE4sizeB7v160006Ev, symObjAddr: 0x238, symBinAddr: 0x100007B54, symSize: 0x28 }
  - { offsetInCU: 0x84F4, offset: 0x1703A, size: 0x8, addend: 0x0, symName: __ZNSt3__16vectorIiNS_9allocatorIiEEEixB7v160006Em, symObjAddr: 0x260, symBinAddr: 0x100007B7C, symSize: 0x24 }
  - { offsetInCU: 0x852B, offset: 0x17071, size: 0x8, addend: 0x0, symName: __ZNSt3__16vectorIiNS_9allocatorIiEEED1B7v160006Ev, symObjAddr: 0x284, symBinAddr: 0x100007BA0, symSize: 0x2C }
  - { offsetInCU: 0x8555, offset: 0x1709B, size: 0x8, addend: 0x0, symName: __ZN12GatorLibrary10InsertBookEiNSt3__112basic_stringIcNS0_11char_traitsIcEENS0_9allocatorIcEEEES6_S6_, symObjAddr: 0x2B0, symBinAddr: 0x100007BCC, symSize: 0x170 }
  - { offsetInCU: 0x85C7, offset: 0x1710D, size: 0x8, addend: 0x0, symName: __ZN4bookC1ERKS_, symObjAddr: 0x420, symBinAddr: 0x100007D3C, symSize: 0x34 }
  - { offsetInCU: 0x85FC, offset: 0x17142, size: 0x8, addend: 0x0, symName: __ZN12GatorLibrary10BorrowBookEiii, symObjAddr: 0x454, symBinAddr: 0x100007D70, symSize: 0x158 }
  - { offsetInCU: 0x867F, offset: 0x171C5, size: 0x8, addend: 0x0, symName: __ZN12GatorLibrary10ReturnBookEii, symObjAddr: 0x60C, symBinAddr: 0x100007EC8, symSize: 0x228 }
  - { offsetInCU: 0x86E5, offset: 0x1722B, size: 0x8, addend: 0x0, symName: __ZN12GatorLibrary10DeleteBookEi, symObjAddr: 0x918, symBinAddr: 0x1000080F0, symSize: 0x2F0 }
  - { offsetInCU: 0x8796, offset: 0x172DC, size: 0x8, addend: 0x0, symName: __ZNSt3__16vectorIiNS_9allocatorIiEEEC1B7v160006Ev, symObjAddr: 0xC3C, symBinAddr: 0x1000083E0, symSize: 0x2C }
  - { offsetInCU: 0x87C0, offset: 0x17306, size: 0x8, addend: 0x0, symName: __ZNSt3__16vectorIiNS_9allocatorIiEEE9push_backB7v160006ERKi, symObjAddr: 0xC68, symBinAddr: 0x10000840C, symSize: 0x6C }
  - { offsetInCU: 0x87F7, offset: 0x1733D, size: 0x8, addend: 0x0, symName: __ZN12GatorLibrary14ColorFlipCountEv, symObjAddr: 0xD00, symBinAddr: 0x100008478, symSize: 0x60 }
  - { offsetInCU: 0x881F, offset: 0x17365, size: 0x8, addend: 0x0, symName: __ZN4bookC2ERKS_, symObjAddr: 0xD60, symBinAddr: 0x1000084D8, symSize: 0xCC }
  - { offsetInCU: 0x887C, offset: 0x173C2, size: 0x8, addend: 0x0, symName: __ZNSt3__16vectorIiNS_9allocatorIiEEED2B7v160006Ev, symObjAddr: 0x2660, symBinAddr: 0x1000085A4, symSize: 0x44 }
  - { offsetInCU: 0x88A6, offset: 0x173EC, size: 0x8, addend: 0x0, symName: __ZNSt3__16vectorIiNS_9allocatorIiEEE16__destroy_vectorC1ERS3_, symObjAddr: 0x26A4, symBinAddr: 0x1000085E8, symSize: 0x34 }
  - { offsetInCU: 0x88DF, offset: 0x17425, size: 0x8, addend: 0x0, symName: __ZNSt3__16vectorIiNS_9allocatorIiEEE16__destroy_vectorclB7v160006Ev, symObjAddr: 0x26D8, symBinAddr: 0x10000861C, symSize: 0x9C }
  - { offsetInCU: 0x8905, offset: 0x1744B, size: 0x8, addend: 0x0, symName: __ZNSt3__16vectorIiNS_9allocatorIiEEE16__destroy_vectorC2ERS3_, symObjAddr: 0x2774, symBinAddr: 0x1000086B8, symSize: 0x20 }
  - { offsetInCU: 0x893E, offset: 0x17484, size: 0x8, addend: 0x0, symName: __ZNKSt3__16vectorIiNS_9allocatorIiEEE17__annotate_deleteB7v160006Ev, symObjAddr: 0x2794, symBinAddr: 0x1000086D8, symSize: 0xB8 }
  - { offsetInCU: 0x8964, offset: 0x174AA, size: 0x8, addend: 0x0, symName: __ZNSt3__16vectorIiNS_9allocatorIiEEE7__clearB7v160006Ev, symObjAddr: 0x285C, symBinAddr: 0x1000087A0, symSize: 0x28 }
  - { offsetInCU: 0x898A, offset: 0x174D0, size: 0x8, addend: 0x0, symName: __ZNSt3__116allocator_traitsINS_9allocatorIiEEE10deallocateB7v160006ERS2_Pim, symObjAddr: 0x2884, symBinAddr: 0x1000087C8, symSize: 0x34 }
  - { offsetInCU: 0x89CC, offset: 0x17512, size: 0x8, addend: 0x0, symName: __ZNSt3__16vectorIiNS_9allocatorIiEEE7__allocB7v160006Ev, symObjAddr: 0x28B8, symBinAddr: 0x1000087FC, symSize: 0x28 }
  - { offsetInCU: 0x89F2, offset: 0x17538, size: 0x8, addend: 0x0, symName: __ZNKSt3__16vectorIiNS_9allocatorIiEEE8capacityB7v160006Ev, symObjAddr: 0x28E0, symBinAddr: 0x100008824, symSize: 0x40 }
  - { offsetInCU: 0x8A18, offset: 0x1755E, size: 0x8, addend: 0x0, symName: __ZNKSt3__16vectorIiNS_9allocatorIiEEE31__annotate_contiguous_containerB7v160006EPKvS5_S5_S5_, symObjAddr: 0x2920, symBinAddr: 0x100008864, symSize: 0x20 }
  - { offsetInCU: 0x8A6E, offset: 0x175B4, size: 0x8, addend: 0x0, symName: __ZNKSt3__16vectorIiNS_9allocatorIiEEE4dataB7v160006Ev, symObjAddr: 0x2940, symBinAddr: 0x100008884, symSize: 0x28 }
  - { offsetInCU: 0x8A94, offset: 0x175DA, size: 0x8, addend: 0x0, symName: __ZNSt3__16vectorIiNS_9allocatorIiEEE22__base_destruct_at_endB7v160006EPi, symObjAddr: 0x297C, symBinAddr: 0x1000088C0, symSize: 0x8C }
  - { offsetInCU: 0x8AD8, offset: 0x1761E, size: 0x8, addend: 0x0, symName: __ZNSt3__116allocator_traitsINS_9allocatorIiEEE7destroyB7v160006IivEEvRS2_PT_, symObjAddr: 0x2A08, symBinAddr: 0x10000894C, symSize: 0x2C }
  - { offsetInCU: 0x8B15, offset: 0x1765B, size: 0x8, addend: 0x0, symName: __ZNSt3__19allocatorIiE7destroyB7v160006EPi, symObjAddr: 0x2A34, symBinAddr: 0x100008978, symSize: 0x14 }
  - { offsetInCU: 0x8B49, offset: 0x1768F, size: 0x8, addend: 0x0, symName: __ZNSt3__19allocatorIiE10deallocateB7v160006EPim, symObjAddr: 0x2A48, symBinAddr: 0x10000898C, symSize: 0x40 }
  - { offsetInCU: 0x8B8B, offset: 0x176D1, size: 0x8, addend: 0x0, symName: __ZNSt3__117__compressed_pairIPiNS_9allocatorIiEEE6secondB7v160006Ev, symObjAddr: 0x2A88, symBinAddr: 0x1000089CC, symSize: 0x24 }
  - { offsetInCU: 0x8BB1, offset: 0x176F7, size: 0x8, addend: 0x0, symName: __ZNSt3__122__compressed_pair_elemINS_9allocatorIiEELi1ELb1EE5__getB7v160006Ev, symObjAddr: 0x2AAC, symBinAddr: 0x1000089F0, symSize: 0x14 }
  - { offsetInCU: 0x8BD7, offset: 0x1771D, size: 0x8, addend: 0x0, symName: __ZNKSt3__16vectorIiNS_9allocatorIiEEE9__end_capB7v160006Ev, symObjAddr: 0x2AC0, symBinAddr: 0x100008A04, symSize: 0x28 }
  - { offsetInCU: 0x8BFD, offset: 0x17743, size: 0x8, addend: 0x0, symName: __ZNKSt3__117__compressed_pairIPiNS_9allocatorIiEEE5firstB7v160006Ev, symObjAddr: 0x2AE8, symBinAddr: 0x100008A2C, symSize: 0x24 }
  - { offsetInCU: 0x8C23, offset: 0x17769, size: 0x8, addend: 0x0, symName: __ZNKSt3__122__compressed_pair_elemIPiLi0ELb0EE5__getB7v160006Ev, symObjAddr: 0x2B0C, symBinAddr: 0x100008A50, symSize: 0x14 }
  - { offsetInCU: 0x8C53, offset: 0x17799, size: 0x8, addend: 0x0, symName: __ZNSt3__16vectorIiNS_9allocatorIiEEEC2B7v160006Ev, symObjAddr: 0x4AB0, symBinAddr: 0x100008A64, symSize: 0x58 }
  - { offsetInCU: 0x8C7D, offset: 0x177C3, size: 0x8, addend: 0x0, symName: __ZNSt3__117__compressed_pairIPiNS_9allocatorIiEEEC1B7v160006IDnNS_18__default_init_tagEEEOT_OT0_, symObjAddr: 0x4B08, symBinAddr: 0x100008ABC, symSize: 0x3C }
  - { offsetInCU: 0x8CD5, offset: 0x1781B, size: 0x8, addend: 0x0, symName: __ZNSt3__117__compressed_pairIPiNS_9allocatorIiEEEC2B7v160006IDnNS_18__default_init_tagEEEOT_OT0_, symObjAddr: 0x4B54, symBinAddr: 0x100008B08, symSize: 0x40 }
  - { offsetInCU: 0x8D2D, offset: 0x17873, size: 0x8, addend: 0x0, symName: __ZNSt3__122__compressed_pair_elemIPiLi0ELb0EEC2B7v160006IDnvEEOT_, symObjAddr: 0x4B94, symBinAddr: 0x100008B48, symSize: 0x1C }
  - { offsetInCU: 0x8D6F, offset: 0x178B5, size: 0x8, addend: 0x0, symName: __ZNSt3__122__compressed_pair_elemINS_9allocatorIiEELi1ELb1EEC2B7v160006ENS_18__default_init_tagE, symObjAddr: 0x4BB0, symBinAddr: 0x100008B64, symSize: 0x2C }
  - { offsetInCU: 0x8DA4, offset: 0x178EA, size: 0x8, addend: 0x0, symName: __ZNSt3__19allocatorIiEC2B7v160006Ev, symObjAddr: 0x4BDC, symBinAddr: 0x100008B90, symSize: 0x2C }
  - { offsetInCU: 0x8DCE, offset: 0x17914, size: 0x8, addend: 0x0, symName: __ZNSt3__116__non_trivial_ifILb1ENS_9allocatorIiEEEC2B7v160006Ev, symObjAddr: 0x4C08, symBinAddr: 0x100008BBC, symSize: 0x14 }
  - { offsetInCU: 0x8DF8, offset: 0x1793E, size: 0x8, addend: 0x0, symName: __ZNSt3__16vectorIiNS_9allocatorIiEEE9__end_capB7v160006Ev, symObjAddr: 0x4C1C, symBinAddr: 0x100008BD0, symSize: 0x28 }
  - { offsetInCU: 0x8E1E, offset: 0x17964, size: 0x8, addend: 0x0, symName: __ZNSt3__16vectorIiNS_9allocatorIiEEE22__construct_one_at_endB7v160006IJRKiEEEvDpOT_, symObjAddr: 0x4C44, symBinAddr: 0x100008BF8, symSize: 0x90 }
  - { offsetInCU: 0x8E6D, offset: 0x179B3, size: 0x8, addend: 0x0, symName: __ZNSt3__16vectorIiNS_9allocatorIiEEE21__push_back_slow_pathIRKiEEvOT_, symObjAddr: 0x4CD4, symBinAddr: 0x100008C88, symSize: 0xD8 }
  - { offsetInCU: 0x8ECB, offset: 0x17A11, size: 0x8, addend: 0x0, symName: __ZNSt3__117__compressed_pairIPiNS_9allocatorIiEEE5firstB7v160006Ev, symObjAddr: 0x4DAC, symBinAddr: 0x100008D60, symSize: 0x24 }
  - { offsetInCU: 0x8EF1, offset: 0x17A37, size: 0x8, addend: 0x0, symName: __ZNSt3__122__compressed_pair_elemIPiLi0ELb0EE5__getB7v160006Ev, symObjAddr: 0x4DD0, symBinAddr: 0x100008D84, symSize: 0x14 }
  - { offsetInCU: 0x8F30, offset: 0x17A76, size: 0x8, addend: 0x0, symName: __ZNSt3__16vectorIiNS_9allocatorIiEEE21_ConstructTransactionC1B7v160006ERS3_m, symObjAddr: 0x4DE4, symBinAddr: 0x100008D98, symSize: 0x3C }
  - { offsetInCU: 0x8F78, offset: 0x17ABE, size: 0x8, addend: 0x0, symName: __ZNSt3__116allocator_traitsINS_9allocatorIiEEE9constructB7v160006IiJRKiEvEEvRS2_PT_DpOT0_, symObjAddr: 0x4E20, symBinAddr: 0x100008DD4, symSize: 0x34 }
  - { offsetInCU: 0x8FCF, offset: 0x17B15, size: 0x8, addend: 0x0, symName: __ZNSt3__16vectorIiNS_9allocatorIiEEE21_ConstructTransactionD1B7v160006Ev, symObjAddr: 0x4E54, symBinAddr: 0x100008E08, symSize: 0x2C }
  - { offsetInCU: 0x8FF9, offset: 0x17B3F, size: 0x8, addend: 0x0, symName: __ZNSt3__16vectorIiNS_9allocatorIiEEE21_ConstructTransactionC2B7v160006ERS3_m, symObjAddr: 0x4E80, symBinAddr: 0x100008E34, symSize: 0x44 }
  - { offsetInCU: 0x9041, offset: 0x17B87, size: 0x8, addend: 0x0, symName: __ZNSt3__19allocatorIiE9constructB7v160006IiJRKiEEEvPT_DpOT0_, symObjAddr: 0x4EC4, symBinAddr: 0x100008E78, symSize: 0x28 }
  - { offsetInCU: 0x9097, offset: 0x17BDD, size: 0x8, addend: 0x0, symName: __ZNSt3__16vectorIiNS_9allocatorIiEEE21_ConstructTransactionD2B7v160006Ev, symObjAddr: 0x4EEC, symBinAddr: 0x100008EA0, symSize: 0x20 }
  - { offsetInCU: 0x90C1, offset: 0x17C07, size: 0x8, addend: 0x0, symName: __ZNKSt3__16vectorIiNS_9allocatorIiEEE11__recommendB7v160006Em, symObjAddr: 0x4F0C, symBinAddr: 0x100008EC0, symSize: 0xB4 }
  - { offsetInCU: 0x9116, offset: 0x17C5C, size: 0x8, addend: 0x0, symName: __ZNSt3__114__split_bufferIiRNS_9allocatorIiEEEC1EmmS3_, symObjAddr: 0x4FC0, symBinAddr: 0x100008F74, symSize: 0x44 }
  - { offsetInCU: 0x916C, offset: 0x17CB2, size: 0x8, addend: 0x0, symName: __ZNSt3__114__split_bufferIiRNS_9allocatorIiEEED1Ev, symObjAddr: 0x511C, symBinAddr: 0x1000090D0, symSize: 0x2C }
  - { offsetInCU: 0x9198, offset: 0x17CDE, size: 0x8, addend: 0x0, symName: __ZNKSt3__16vectorIiNS_9allocatorIiEEE8max_sizeEv, symObjAddr: 0x5148, symBinAddr: 0x1000090FC, symSize: 0x60 }
  - { offsetInCU: 0x91C0, offset: 0x17D06, size: 0x8, addend: 0x0, symName: __ZNKSt3__16vectorIiNS_9allocatorIiEEE20__throw_length_errorB7v160006Ev, symObjAddr: 0x51A8, symBinAddr: 0x10000915C, symSize: 0x1C }
  - { offsetInCU: 0x91F0, offset: 0x17D36, size: 0x8, addend: 0x0, symName: __ZNSt3__116allocator_traitsINS_9allocatorIiEEE8max_sizeB7v160006IS2_vEEmRKS2_, symObjAddr: 0x51F0, symBinAddr: 0x100009178, symSize: 0x24 }
  - { offsetInCU: 0x921E, offset: 0x17D64, size: 0x8, addend: 0x0, symName: __ZNKSt3__16vectorIiNS_9allocatorIiEEE7__allocB7v160006Ev, symObjAddr: 0x5214, symBinAddr: 0x10000919C, symSize: 0x28 }
  - { offsetInCU: 0x9244, offset: 0x17D8A, size: 0x8, addend: 0x0, symName: __ZNKSt3__19allocatorIiE8max_sizeB7v160006Ev, symObjAddr: 0x523C, symBinAddr: 0x1000091C4, symSize: 0x14 }
  - { offsetInCU: 0x926A, offset: 0x17DB0, size: 0x8, addend: 0x0, symName: __ZNKSt3__117__compressed_pairIPiNS_9allocatorIiEEE6secondB7v160006Ev, symObjAddr: 0x5250, symBinAddr: 0x1000091D8, symSize: 0x24 }
  - { offsetInCU: 0x9290, offset: 0x17DD6, size: 0x8, addend: 0x0, symName: __ZNKSt3__122__compressed_pair_elemINS_9allocatorIiEELi1ELb1EE5__getB7v160006Ev, symObjAddr: 0x5274, symBinAddr: 0x1000091FC, symSize: 0x14 }
  - { offsetInCU: 0x92B6, offset: 0x17DFC, size: 0x8, addend: 0x0, symName: __ZNSt3__114__split_bufferIiRNS_9allocatorIiEEEC2EmmS3_, symObjAddr: 0x52DC, symBinAddr: 0x100009210, symSize: 0xD4 }
  - { offsetInCU: 0x9329, offset: 0x17E6F, size: 0x8, addend: 0x0, symName: __ZNSt3__117__compressed_pairIPiRNS_9allocatorIiEEEC1B7v160006IDnS4_EEOT_OT0_, symObjAddr: 0x53B0, symBinAddr: 0x1000092E4, symSize: 0x3C }
  - { offsetInCU: 0x9381, offset: 0x17EC7, size: 0x8, addend: 0x0, symName: __ZNSt3__114__split_bufferIiRNS_9allocatorIiEEE7__allocB7v160006Ev, symObjAddr: 0x542C, symBinAddr: 0x100009360, symSize: 0x28 }
  - { offsetInCU: 0x93A7, offset: 0x17EED, size: 0x8, addend: 0x0, symName: __ZNSt3__114__split_bufferIiRNS_9allocatorIiEEE9__end_capB7v160006Ev, symObjAddr: 0x5454, symBinAddr: 0x100009388, symSize: 0x28 }
  - { offsetInCU: 0x93CD, offset: 0x17F13, size: 0x8, addend: 0x0, symName: __ZNSt3__117__compressed_pairIPiRNS_9allocatorIiEEEC2B7v160006IDnS4_EEOT_OT0_, symObjAddr: 0x547C, symBinAddr: 0x1000093B0, symSize: 0x48 }
  - { offsetInCU: 0x9425, offset: 0x17F6B, size: 0x8, addend: 0x0, symName: __ZNSt3__122__compressed_pair_elemIRNS_9allocatorIiEELi1ELb0EEC2B7v160006IS3_vEEOT_, symObjAddr: 0x54C4, symBinAddr: 0x1000093F8, symSize: 0x20 }
  - { offsetInCU: 0x9467, offset: 0x17FAD, size: 0x8, addend: 0x0, symName: __ZNSt3__19allocatorIiE8allocateB7v160006Em, symObjAddr: 0x54E4, symBinAddr: 0x100009418, symSize: 0x58 }
  - { offsetInCU: 0x949B, offset: 0x17FE1, size: 0x8, addend: 0x0, symName: __ZNSt3__117__compressed_pairIPiRNS_9allocatorIiEEE6secondB7v160006Ev, symObjAddr: 0x553C, symBinAddr: 0x100009470, symSize: 0x28 }
  - { offsetInCU: 0x94C1, offset: 0x18007, size: 0x8, addend: 0x0, symName: __ZNSt3__122__compressed_pair_elemIRNS_9allocatorIiEELi1ELb0EE5__getB7v160006Ev, symObjAddr: 0x5564, symBinAddr: 0x100009498, symSize: 0x18 }
  - { offsetInCU: 0x94E7, offset: 0x1802D, size: 0x8, addend: 0x0, symName: __ZNSt3__117__compressed_pairIPiRNS_9allocatorIiEEE5firstB7v160006Ev, symObjAddr: 0x557C, symBinAddr: 0x1000094B0, symSize: 0x24 }
  - { offsetInCU: 0x950D, offset: 0x18053, size: 0x8, addend: 0x0, symName: __ZNSt3__116reverse_iteratorIPiEC1B7v160006ES1_, symObjAddr: 0x5618, symBinAddr: 0x10000954C, symSize: 0x34 }
  - { offsetInCU: 0x9545, offset: 0x1808B, size: 0x8, addend: 0x0, symName: __ZNKSt3__116reverse_iteratorIPiE4baseB7v160006Ev, symObjAddr: 0x564C, symBinAddr: 0x100009580, symSize: 0x18 }
  - { offsetInCU: 0x956B, offset: 0x180B1, size: 0x8, addend: 0x0, symName: __ZNKSt3__16vectorIiNS_9allocatorIiEEE14__annotate_newB7v160006Em, symObjAddr: 0x56A0, symBinAddr: 0x1000095D4, symSize: 0xAC }
  - { offsetInCU: 0x95C3, offset: 0x18109, size: 0x8, addend: 0x0, symName: __ZNKSt3__111__move_loopINS_17_ClassicAlgPolicyEEclB7v160006INS_16reverse_iteratorIPiEES6_S6_EENS_4pairIT_T1_EES8_T0_S9_, symObjAddr: 0x5A4C, symBinAddr: 0x100009980, symSize: 0xA0 }
  - { offsetInCU: 0x9633, offset: 0x18179, size: 0x8, addend: 0x0, symName: __ZNSt3__18_IterOpsINS_17_ClassicAlgPolicyEE11__iter_moveB7v160006IRNS_16reverse_iteratorIPiEEEENS_9enable_ifIXsr12is_referenceIDTdeclsr3stdE7declvalIRT_EEEEE5valueEDTclsr3stdE4movedeclsr3stdE7declvalISA_EEEEE4typeEOS9_, symObjAddr: 0x5C80, symBinAddr: 0x100009BB4, symSize: 0x28 }
  - { offsetInCU: 0x965F, offset: 0x181A5, size: 0x8, addend: 0x0, symName: __ZNKSt3__116reverse_iteratorIPiEdeB7v160006Ev, symObjAddr: 0x5CA8, symBinAddr: 0x100009BDC, symSize: 0x28 }
  - { offsetInCU: 0x9693, offset: 0x181D9, size: 0x8, addend: 0x0, symName: __ZNSt3__116reverse_iteratorIPiEppB7v160006Ev, symObjAddr: 0x5CD0, symBinAddr: 0x100009C04, symSize: 0x20 }
  - { offsetInCU: 0x96B9, offset: 0x181FF, size: 0x8, addend: 0x0, symName: __ZNSt3__18_IterOpsINS_17_ClassicAlgPolicyEE25__validate_iter_referenceB7v160006IRNS_16reverse_iteratorIPiEEEEvv, symObjAddr: 0x5CF0, symBinAddr: 0x100009C24, symSize: 0x4 }
  - { offsetInCU: 0x96D7, offset: 0x1821D, size: 0x8, addend: 0x0, symName: __ZNSt3__118__unwrap_iter_implINS_16reverse_iteratorIPiEELb0EE8__unwrapB7v160006ES3_, symObjAddr: 0x5CF4, symBinAddr: 0x100009C28, symSize: 0x24 }
  - { offsetInCU: 0x96FF, offset: 0x18245, size: 0x8, addend: 0x0, symName: __ZNSt3__14pairINS_16reverse_iteratorIPiEES3_EC1B7v160006IS3_S3_LPv0EEEOT_OT0_, symObjAddr: 0x5D18, symBinAddr: 0x100009C4C, symSize: 0x3C }
  - { offsetInCU: 0x975D, offset: 0x182A3, size: 0x8, addend: 0x0, symName: __ZNSt3__14pairINS_16reverse_iteratorIPiEES3_EC2B7v160006IS3_S3_LPv0EEEOT_OT0_, symObjAddr: 0x5D54, symBinAddr: 0x100009C88, symSize: 0x34 }
  - { offsetInCU: 0x97BB, offset: 0x18301, size: 0x8, addend: 0x0, symName: __ZNSt3__118__unwrap_iter_implINS_16reverse_iteratorIPiEELb0EE8__rewrapB7v160006ES3_S3_, symObjAddr: 0x5D88, symBinAddr: 0x100009CBC, symSize: 0x2C }
  - { offsetInCU: 0x97E9, offset: 0x1832F, size: 0x8, addend: 0x0, symName: __ZNSt3__116reverse_iteratorIPiEC2B7v160006ES1_, symObjAddr: 0x5DB4, symBinAddr: 0x100009CE8, symSize: 0x28 }
  - { offsetInCU: 0x9821, offset: 0x18367, size: 0x8, addend: 0x0, symName: __ZNSt3__114__split_bufferIiRNS_9allocatorIiEEED2Ev, symObjAddr: 0x5DDC, symBinAddr: 0x100009D10, symSize: 0x8C }
  - { offsetInCU: 0x984D, offset: 0x18393, size: 0x8, addend: 0x0, symName: __ZNSt3__114__split_bufferIiRNS_9allocatorIiEEE5clearB7v160006Ev, symObjAddr: 0x5E68, symBinAddr: 0x100009D9C, symSize: 0x28 }
  - { offsetInCU: 0x9873, offset: 0x183B9, size: 0x8, addend: 0x0, symName: __ZNKSt3__114__split_bufferIiRNS_9allocatorIiEEE8capacityB7v160006Ev, symObjAddr: 0x5E90, symBinAddr: 0x100009DC4, symSize: 0x40 }
  - { offsetInCU: 0x9899, offset: 0x183DF, size: 0x8, addend: 0x0, symName: __ZNSt3__114__split_bufferIiRNS_9allocatorIiEEE17__destruct_at_endB7v160006EPi, symObjAddr: 0x5ED0, symBinAddr: 0x100009E04, symSize: 0x2C }
  - { offsetInCU: 0x98CD, offset: 0x18413, size: 0x8, addend: 0x0, symName: __ZNSt3__114__split_bufferIiRNS_9allocatorIiEEE17__destruct_at_endB7v160006EPiNS_17integral_constantIbLb0EEE, symObjAddr: 0x5EFC, symBinAddr: 0x100009E30, symSize: 0x80 }
  - { offsetInCU: 0x990E, offset: 0x18454, size: 0x8, addend: 0x0, symName: __ZNKSt3__114__split_bufferIiRNS_9allocatorIiEEE9__end_capB7v160006Ev, symObjAddr: 0x5F7C, symBinAddr: 0x100009EB0, symSize: 0x28 }
  - { offsetInCU: 0x9934, offset: 0x1847A, size: 0x8, addend: 0x0, symName: __ZNKSt3__117__compressed_pairIPiRNS_9allocatorIiEEE5firstB7v160006Ev, symObjAddr: 0x5FA4, symBinAddr: 0x100009ED8, symSize: 0x24 }
  - { offsetInCU: 0xCCDC, offset: 0x251E4, size: 0x8, addend: 0x0, symName: __ZNSt3__17getlineB7v160006IcNS_11char_traitsIcEENS_9allocatorIcEEEERNS_13basic_istreamIT_T0_EES9_RNS_12basic_stringIS6_S7_T1_EE, symObjAddr: 0x508, symBinAddr: 0x10000A2D8, symSize: 0x5C }
  - { offsetInCU: 0xCD3F, offset: 0x25247, size: 0x8, addend: 0x0, symName: __ZNSt3__17getlineB7v160006IcNS_11char_traitsIcEENS_9allocatorIcEEEERNS_13basic_istreamIT_T0_EES9_RNS_12basic_stringIS6_S7_T1_EES6_, symObjAddr: 0xF04, symBinAddr: 0x10000A928, symSize: 0x238 }
  - { offsetInCU: 0xCDFD, offset: 0x25305, size: 0x8, addend: 0x0, symName: __ZNSt3__125__debug_db_invalidate_allB7v160006INS_12basic_stringIcNS_11char_traitsIcEENS_9allocatorIcEEEEEEvPT_, symObjAddr: 0x14F0, symBinAddr: 0x10000ADF0, symSize: 0x10 }
  - { offsetInCU: 0xD01B, offset: 0x25523, size: 0x8, addend: 0x0, symName: __ZNSt3__110__str_findB7v160006IcmNS_11char_traitsIcEELm18446744073709551615EEET0_PKT_S3_S6_S3_S3_, symObjAddr: 0x2320, symBinAddr: 0x10000BA48, symSize: 0xE4 }
  - { offsetInCU: 0xD0C2, offset: 0x255CA, size: 0x8, addend: 0x0, symName: __ZNSt3__118__search_substringB7v160006IcNS_11char_traitsIcEEEEPKT_S5_S5_S5_S5_, symObjAddr: 0x2404, symBinAddr: 0x10000BB2C, symSize: 0x154 }
  - { offsetInCU: 0xD15C, offset: 0x25664, size: 0x8, addend: 0x0, symName: __ZNSt3__123__constexpr_char_memchrB7v160006EPKcim, symObjAddr: 0x2634, symBinAddr: 0x10000BCF0, symSize: 0x34 }
  - { offsetInCU: 0xD4EA, offset: 0x259F2, size: 0x8, addend: 0x0, symName: __ZNSt3__1rsB7v160006IcNS_11char_traitsIcEEEERNS_13basic_istreamIT_T0_EES7_RS4_, symObjAddr: 0x27BC, symBinAddr: 0x10000BE44, symSize: 0x18C }
  - { offsetInCU: 0xFCB0, offset: 0x281B8, size: 0x8, addend: 0x0, symName: _main, symObjAddr: 0x0, symBinAddr: 0x100009EFC, symSize: 0xA0 }
  - { offsetInCU: 0x103E3, offset: 0x288EB, size: 0x8, addend: 0x0, symName: __ZN8gl_inputC1Ev, symObjAddr: 0x16C, symBinAddr: 0x100009F9C, symSize: 0x2C }
  - { offsetInCU: 0x1040D, offset: 0x28915, size: 0x8, addend: 0x0, symName: __ZN8gl_input12runwith_fileENSt3__112basic_stringIcNS0_11char_traitsIcEENS0_9allocatorIcEEEE, symObjAddr: 0x198, symBinAddr: 0x100009FC8, symSize: 0x108 }
  - { offsetInCU: 0x10466, offset: 0x2896E, size: 0x8, addend: 0x0, symName: __ZN8gl_inputC2Ev, symObjAddr: 0x2D4, symBinAddr: 0x10000A0D0, symSize: 0x44 }
  - { offsetInCU: 0x10490, offset: 0x28998, size: 0x8, addend: 0x0, symName: __ZN12GatorLibraryC1Ev, symObjAddr: 0x318, symBinAddr: 0x10000A114, symSize: 0x2C }
  - { offsetInCU: 0x104BC, offset: 0x289C4, size: 0x8, addend: 0x0, symName: __ZN12GatorLibraryC2Ev, symObjAddr: 0x344, symBinAddr: 0x10000A140, symSize: 0x2C }
  - { offsetInCU: 0x10609, offset: 0x28B11, size: 0x8, addend: 0x0, symName: __ZNSt3__114basic_ifstreamIcNS_11char_traitsIcEEEC1ERKNS_12basic_stringIcS2_NS_9allocatorIcEEEEj, symObjAddr: 0x370, symBinAddr: 0x10000A16C, symSize: 0x16C }
  - { offsetInCU: 0x10653, offset: 0x28B5B, size: 0x8, addend: 0x0, symName: __ZNKSt3__19basic_iosIcNS_11char_traitsIcEEEcvbB7v160006Ev, symObjAddr: 0x564, symBinAddr: 0x10000A334, symSize: 0x2C }
  - { offsetInCU: 0x10679, offset: 0x28B81, size: 0x8, addend: 0x0, symName: __ZN8gl_input11parse_inputERKNSt3__112basic_stringIcNS0_11char_traitsIcEENS0_9allocatorIcEEEE, symObjAddr: 0x590, symBinAddr: 0x10000A360, symSize: 0x410 }
  - { offsetInCU: 0x106B2, offset: 0x28BBA, size: 0x8, addend: 0x0, symName: __ZNSt3__114basic_ifstreamIcNS_11char_traitsIcEEED1Ev, symObjAddr: 0x9A0, symBinAddr: 0x10000A770, symSize: 0x40 }
  - { offsetInCU: 0x106DF, offset: 0x28BE7, size: 0x8, addend: 0x0, symName: __ZNSt3__19basic_iosIcNS_11char_traitsIcEEEC2B7v160006Ev, symObjAddr: 0x9E0, symBinAddr: 0x10000A7B0, symSize: 0x44 }
  - { offsetInCU: 0x10709, offset: 0x28C11, size: 0x8, addend: 0x0, symName: __ZNSt3__113basic_istreamIcNS_11char_traitsIcEEEC2B7v160006EPNS_15basic_streambufIcS2_EE, symObjAddr: 0xA24, symBinAddr: 0x10000A7F4, symSize: 0x64 }
  - { offsetInCU: 0x1074E, offset: 0x28C56, size: 0x8, addend: 0x0, symName: __ZNSt3__113basic_filebufIcNS_11char_traitsIcEEE4openERKNS_12basic_stringIcS2_NS_9allocatorIcEEEEj, symObjAddr: 0xA88, symBinAddr: 0x10000A858, symSize: 0x44 }
  - { offsetInCU: 0x10792, offset: 0x28C9A, size: 0x8, addend: 0x0, symName: __ZNSt3__18ios_baseC2B7v160006Ev, symObjAddr: 0xAF8, symBinAddr: 0x10000A89C, symSize: 0x24 }
  - { offsetInCU: 0x107BC, offset: 0x28CC4, size: 0x8, addend: 0x0, symName: __ZNSt3__19basic_iosIcNS_11char_traitsIcEEE4initB7v160006EPNS_15basic_streambufIcS2_EE, symObjAddr: 0xB1C, symBinAddr: 0x10000A8C0, symSize: 0x44 }
  - { offsetInCU: 0x107F3, offset: 0x28CFB, size: 0x8, addend: 0x0, symName: __ZNKSt3__112basic_stringIcNS_11char_traitsIcEENS_9allocatorIcEEE5c_strB7v160006Ev, symObjAddr: 0xB68, symBinAddr: 0x10000A904, symSize: 0x24 }
  - { offsetInCU: 0x1083C, offset: 0x28D44, size: 0x8, addend: 0x0, symName: __ZNKSt3__113basic_istreamIcNS_11char_traitsIcEEE6sentrycvbB7v160006Ev, symObjAddr: 0x11C0, symBinAddr: 0x10000AB60, symSize: 0x1C }
  - { offsetInCU: 0x10862, offset: 0x28D6A, size: 0x8, addend: 0x0, symName: __ZNSt3__112basic_stringIcNS_11char_traitsIcEENS_9allocatorIcEEE5clearB7v160006Ev, symObjAddr: 0x11DC, symBinAddr: 0x10000AB7C, symSize: 0x88 }
  - { offsetInCU: 0x1088A, offset: 0x28D92, size: 0x8, addend: 0x0, symName: __ZNSt3__115basic_streambufIcNS_11char_traitsIcEEE6sbumpcB7v160006Ev, symObjAddr: 0x1288, symBinAddr: 0x10000AC04, symSize: 0x78 }
  - { offsetInCU: 0x108B0, offset: 0x28DB8, size: 0x8, addend: 0x0, symName: __ZNSt3__111char_traitsIcE12to_char_typeEi, symObjAddr: 0x1328, symBinAddr: 0x10000AC7C, symSize: 0x18 }
  - { offsetInCU: 0x108D3, offset: 0x28DDB, size: 0x8, addend: 0x0, symName: __ZNSt3__111char_traitsIcE2eqEcc, symObjAddr: 0x1340, symBinAddr: 0x10000AC94, symSize: 0x28 }
  - { offsetInCU: 0x10904, offset: 0x28E0C, size: 0x8, addend: 0x0, symName: __ZNKSt3__112basic_stringIcNS_11char_traitsIcEENS_9allocatorIcEEE8max_sizeB7v160006Ev, symObjAddr: 0x13BC, symBinAddr: 0x10000ACBC, symSize: 0xAC }
  - { offsetInCU: 0x10956, offset: 0x28E5E, size: 0x8, addend: 0x0, symName: __ZNSt3__18ios_base18__setstate_nothrowB7v160006Ej, symObjAddr: 0x1468, symBinAddr: 0x10000AD68, symSize: 0x64 }
  - { offsetInCU: 0x1098B, offset: 0x28E93, size: 0x8, addend: 0x0, symName: __ZNKSt3__19basic_iosIcNS_11char_traitsIcEEE10exceptionsB7v160006Ev, symObjAddr: 0x14CC, symBinAddr: 0x10000ADCC, symSize: 0x24 }
  - { offsetInCU: 0x109B1, offset: 0x28EB9, size: 0x8, addend: 0x0, symName: __ZNSt3__112basic_stringIcNS_11char_traitsIcEENS_9allocatorIcEEE15__set_long_sizeB7v160006Em, symObjAddr: 0x154C, symBinAddr: 0x10000AE00, symSize: 0x38 }
  - { offsetInCU: 0x109E6, offset: 0x28EEE, size: 0x8, addend: 0x0, symName: __ZNSt3__111char_traitsIcE11to_int_typeEc, symObjAddr: 0x1650, symBinAddr: 0x10000AE38, symSize: 0x14 }
  - { offsetInCU: 0x10A13, offset: 0x28F1B, size: 0x8, addend: 0x0, symName: __ZNSt3__116allocator_traitsINS_9allocatorIcEEE8max_sizeB7v160006IS2_vEEmRKS2_, symObjAddr: 0x16C0, symBinAddr: 0x10000AE4C, symSize: 0x24 }
  - { offsetInCU: 0x10A41, offset: 0x28F49, size: 0x8, addend: 0x0, symName: __ZNKSt3__112basic_stringIcNS_11char_traitsIcEENS_9allocatorIcEEE7__allocB7v160006Ev, symObjAddr: 0x16E4, symBinAddr: 0x10000AE70, symSize: 0x24 }
  - { offsetInCU: 0x10A67, offset: 0x28F6F, size: 0x8, addend: 0x0, symName: __ZNSt3__114numeric_limitsImE3maxB7v160006Ev, symObjAddr: 0x1708, symBinAddr: 0x10000AE94, symSize: 0x14 }
  - { offsetInCU: 0x10A7B, offset: 0x28F83, size: 0x8, addend: 0x0, symName: __ZNKSt3__19allocatorIcE8max_sizeB7v160006Ev, symObjAddr: 0x171C, symBinAddr: 0x10000AEA8, symSize: 0x14 }
  - { offsetInCU: 0x10AA1, offset: 0x28FA9, size: 0x8, addend: 0x0, symName: __ZNKSt3__117__compressed_pairINS_12basic_stringIcNS_11char_traitsIcEENS_9allocatorIcEEE5__repES5_E6secondB7v160006Ev, symObjAddr: 0x1730, symBinAddr: 0x10000AEBC, symSize: 0x24 }
  - { offsetInCU: 0x10AC7, offset: 0x28FCF, size: 0x8, addend: 0x0, symName: __ZNKSt3__122__compressed_pair_elemINS_9allocatorIcEELi1ELb1EE5__getB7v160006Ev, symObjAddr: 0x1754, symBinAddr: 0x10000AEE0, symSize: 0x14 }
  - { offsetInCU: 0x10AED, offset: 0x28FF5, size: 0x8, addend: 0x0, symName: __ZNSt3__123__libcpp_numeric_limitsImLb1EE3maxB7v160006Ev, symObjAddr: 0x1768, symBinAddr: 0x10000AEF4, symSize: 0x8 }
  - { offsetInCU: 0x10B01, offset: 0x29009, size: 0x8, addend: 0x0, symName: __ZNKSt3__18ios_base10exceptionsB7v160006Ev, symObjAddr: 0x1770, symBinAddr: 0x10000AEFC, symSize: 0x18 }
  - { offsetInCU: 0x10B29, offset: 0x29031, size: 0x8, addend: 0x0, symName: __ZNKSt3__19basic_iosIcNS_11char_traitsIcEEE4failB7v160006Ev, symObjAddr: 0x17EC, symBinAddr: 0x10000AF14, symSize: 0x28 }
  - { offsetInCU: 0x10B4F, offset: 0x29057, size: 0x8, addend: 0x0, symName: __ZNKSt3__18ios_base4failB7v160006Ev, symObjAddr: 0x1814, symBinAddr: 0x10000AF3C, symSize: 0x28 }
  - { offsetInCU: 0x10B77, offset: 0x2907F, size: 0x8, addend: 0x0, symName: __ZNKSt3__112basic_stringIcNS_11char_traitsIcEENS_9allocatorIcEEE4findB7v160006ERKS5_m, symObjAddr: 0x183C, symBinAddr: 0x10000AF64, symSize: 0x78 }
  - { offsetInCU: 0x10BBD, offset: 0x290C5, size: 0x8, addend: 0x0, symName: __ZN8gl_input12parse_insertENSt3__112basic_stringIcNS0_11char_traitsIcEENS0_9allocatorIcEEEE, symObjAddr: 0x18B4, symBinAddr: 0x10000AFDC, symSize: 0x288 }
  - { offsetInCU: 0x10C5B, offset: 0x29163, size: 0x8, addend: 0x0, symName: __ZN8gl_input12parse_deleteERKNSt3__112basic_stringIcNS0_11char_traitsIcEENS0_9allocatorIcEEEE, symObjAddr: 0x1B3C, symBinAddr: 0x10000B264, symSize: 0x114 }
  - { offsetInCU: 0x10CBB, offset: 0x291C3, size: 0x8, addend: 0x0, symName: __ZN8gl_input15parse_colorflipERKNSt3__112basic_stringIcNS0_11char_traitsIcEENS0_9allocatorIcEEEE, symObjAddr: 0x1C50, symBinAddr: 0x10000B378, symSize: 0x28 }
  - { offsetInCU: 0x10CEF, offset: 0x291F7, size: 0x8, addend: 0x0, symName: __ZN8gl_input17parse_findclosestERKNSt3__112basic_stringIcNS0_11char_traitsIcEENS0_9allocatorIcEEEE, symObjAddr: 0x1C78, symBinAddr: 0x10000B3A0, symSize: 0xFC }
  - { offsetInCU: 0x10D4F, offset: 0x29257, size: 0x8, addend: 0x0, symName: __ZN8gl_input12parse_printsERKNSt3__112basic_stringIcNS0_11char_traitsIcEENS0_9allocatorIcEEEE, symObjAddr: 0x1D74, symBinAddr: 0x10000B49C, symSize: 0x128 }
  - { offsetInCU: 0x10DBD, offset: 0x292C5, size: 0x8, addend: 0x0, symName: __ZN8gl_input11parse_printERKNSt3__112basic_stringIcNS0_11char_traitsIcEENS0_9allocatorIcEEEE, symObjAddr: 0x1E9C, symBinAddr: 0x10000B5C4, symSize: 0x114 }
  - { offsetInCU: 0x10E1D, offset: 0x29325, size: 0x8, addend: 0x0, symName: __ZN8gl_input12parse_borrowERKNSt3__112basic_stringIcNS0_11char_traitsIcEENS0_9allocatorIcEEEE, symObjAddr: 0x1FB0, symBinAddr: 0x10000B6D8, symSize: 0x1F0 }
  - { offsetInCU: 0x10E99, offset: 0x293A1, size: 0x8, addend: 0x0, symName: __ZN8gl_input12parse_returnERKNSt3__112basic_stringIcNS0_11char_traitsIcEENS0_9allocatorIcEEEE, symObjAddr: 0x21A0, symBinAddr: 0x10000B8C8, symSize: 0x140 }
  - { offsetInCU: 0x10F07, offset: 0x2940F, size: 0x8, addend: 0x0, symName: __ZN8gl_input10parse_quitERKNSt3__112basic_stringIcNS0_11char_traitsIcEENS0_9allocatorIcEEEE, symObjAddr: 0x22E0, symBinAddr: 0x10000BA08, symSize: 0x40 }
  - { offsetInCU: 0x10F3B, offset: 0x29443, size: 0x8, addend: 0x0, symName: __ZNSt3__111char_traitsIcE4findEPKcmRS2_, symObjAddr: 0x2558, symBinAddr: 0x10000BC80, symSize: 0x70 }
  - { offsetInCU: 0x10FCA, offset: 0x294D2, size: 0x8, addend: 0x0, symName: __ZNSt3__119basic_istringstreamIcNS_11char_traitsIcEENS_9allocatorIcEEEC1B7v160006ERKNS_12basic_stringIcS2_S4_EEj, symObjAddr: 0x269C, symBinAddr: 0x10000BD24, symSize: 0xFC }
  - { offsetInCU: 0x11012, offset: 0x2951A, size: 0x8, addend: 0x0, symName: __ZNKSt3__112basic_stringIcNS_11char_traitsIcEENS_9allocatorIcEEE6lengthB7v160006Ev, symObjAddr: 0x2798, symBinAddr: 0x10000BE20, symSize: 0x24 }
  - { offsetInCU: 0x1103D, offset: 0x29545, size: 0x8, addend: 0x0, symName: __ZNSt3__119basic_istringstreamIcNS_11char_traitsIcEENS_9allocatorIcEEED1Ev, symObjAddr: 0x2948, symBinAddr: 0x10000BFD0, symSize: 0x40 }
  - { offsetInCU: 0x1106A, offset: 0x29572, size: 0x8, addend: 0x0, symName: __ZNSt3__115basic_stringbufIcNS_11char_traitsIcEENS_9allocatorIcEEEC1B7v160006ERKNS_12basic_stringIcS2_S4_EEj, symObjAddr: 0x2988, symBinAddr: 0x10000C010, symSize: 0x3C }
  - { offsetInCU: 0x110B0, offset: 0x295B8, size: 0x8, addend: 0x0, symName: __ZNSt3__115basic_stringbufIcNS_11char_traitsIcEENS_9allocatorIcEEEC2B7v160006ERKNS_12basic_stringIcS2_S4_EEj, symObjAddr: 0x29C4, symBinAddr: 0x10000C04C, symSize: 0xB4 }
  - { offsetInCU: 0x110F6, offset: 0x295FE, size: 0x8, addend: 0x0, symName: __ZNKSt3__112basic_stringIcNS_11char_traitsIcEENS_9allocatorIcEEE13get_allocatorB7v160006Ev, symObjAddr: 0x2A78, symBinAddr: 0x10000C100, symSize: 0x24 }
  - { offsetInCU: 0x1111C, offset: 0x29624, size: 0x8, addend: 0x0, symName: __ZNSt3__112basic_stringIcNS_11char_traitsIcEENS_9allocatorIcEEEC1B7v160006ERKS4_, symObjAddr: 0x2A9C, symBinAddr: 0x10000C124, symSize: 0x34 }
  - { offsetInCU: 0x11155, offset: 0x2965D, size: 0x8, addend: 0x0, symName: __ZNSt3__112basic_stringIcNS_11char_traitsIcEENS_9allocatorIcEEEC2B7v160006ERKS4_, symObjAddr: 0x2AD0, symBinAddr: 0x10000C158, symSize: 0x50 }
  - { offsetInCU: 0x1118E, offset: 0x29696, size: 0x8, addend: 0x0, symName: __ZNSt3__117__compressed_pairINS_12basic_stringIcNS_11char_traitsIcEENS_9allocatorIcEEE5__repES5_EC1B7v160006INS_18__default_init_tagERKS5_EEOT_OT0_, symObjAddr: 0x2B20, symBinAddr: 0x10000C1A8, symSize: 0x3C }
  - { offsetInCU: 0x111E6, offset: 0x296EE, size: 0x8, addend: 0x0, symName: __ZNSt3__117__compressed_pairINS_12basic_stringIcNS_11char_traitsIcEENS_9allocatorIcEEE5__repES5_EC2B7v160006INS_18__default_init_tagERKS5_EEOT_OT0_, symObjAddr: 0x2B5C, symBinAddr: 0x10000C1E4, symSize: 0x40 }
  - { offsetInCU: 0x1123E, offset: 0x29746, size: 0x8, addend: 0x0, symName: __ZNSt3__122__compressed_pair_elemINS_9allocatorIcEELi1ELb1EEC2B7v160006IRKS2_vEEOT_, symObjAddr: 0x2B9C, symBinAddr: 0x10000C224, symSize: 0x18 }
  - { offsetInCU: 0x11280, offset: 0x29788, size: 0x8, addend: 0x0, symName: __ZNSt3__119basic_istringstreamIcNS_11char_traitsIcEENS_9allocatorIcEEED2Ev, symObjAddr: 0x2BB4, symBinAddr: 0x10000C23C, symSize: 0x64 }
  - { offsetInCU: 0x112BA, offset: 0x297C2, size: 0x8, addend: 0x0, symName: __ZTv0_n24_NSt3__119basic_istringstreamIcNS_11char_traitsIcEENS_9allocatorIcEEED1Ev, symObjAddr: 0x2C18, symBinAddr: 0x10000C2A0, symSize: 0x28 }
  - { offsetInCU: 0x112D6, offset: 0x297DE, size: 0x8, addend: 0x0, symName: __ZNSt3__115basic_stringbufIcNS_11char_traitsIcEENS_9allocatorIcEEED1Ev, symObjAddr: 0x2C40, symBinAddr: 0x10000C2C8, symSize: 0x2C }
  - { offsetInCU: 0x11303, offset: 0x2980B, size: 0x8, addend: 0x0, symName: __ZNSt3__115basic_stringbufIcNS_11char_traitsIcEENS_9allocatorIcEEED2Ev, symObjAddr: 0x2C6C, symBinAddr: 0x10000C2F4, symSize: 0x48 }
  - { offsetInCU: 0x11330, offset: 0x29838, size: 0x8, addend: 0x0, symName: __ZNSt3__114basic_ifstreamIcNS_11char_traitsIcEEED2Ev, symObjAddr: 0x2CB4, symBinAddr: 0x10000C33C, symSize: 0x64 }
  - { offsetInCU: 0x1136A, offset: 0x29872, size: 0x8, addend: 0x0, symName: __ZTv0_n24_NSt3__114basic_ifstreamIcNS_11char_traitsIcEEED1Ev, symObjAddr: 0x2D18, symBinAddr: 0x10000C3A0, symSize: 0x28 }
  - { offsetInCU: 0x2CE7, offset: 0x2C5C4, size: 0x8, addend: 0x0, symName: __ZNSt3__17advanceB7v160006IP11reservationmmvEEvRT_T0_, symObjAddr: 0x34D4, symBinAddr: 0x10000DEA4, symSize: 0x50 }
  - { offsetInCU: 0x4550, offset: 0x2DE2D, size: 0x8, addend: 0x0, symName: __ZNSt3__14swapB7v160006I5ColorEENS_9enable_ifIXaasr21is_move_constructibleIT_EE5valuesr18is_move_assignableIS3_EE5valueEvE4typeERS3_S6_, symObjAddr: 0x804, symBinAddr: 0x10000CBCC, symSize: 0x3C }
  - { offsetInCU: 0x45A1, offset: 0x2DE7E, size: 0x8, addend: 0x0, symName: __ZNSt3__14swapB7v160006I4bookEENS_9enable_ifIXaasr21is_move_constructibleIT_EE5valuesr18is_move_assignableIS3_EE5valueEvE4typeERS3_S6_, symObjAddr: 0x1760, symBinAddr: 0x10000DA40, symSize: 0x74 }
  - { offsetInCU: 0x45F2, offset: 0x2DECF, size: 0x8, addend: 0x0, symName: __ZNSt3__18distanceB7v160006IP11reservationEENS_15iterator_traitsIT_E15difference_typeES4_S4_, symObjAddr: 0x34A8, symBinAddr: 0x10000DE78, symSize: 0x2C }
  - { offsetInCU: 0x4635, offset: 0x2DF12, size: 0x8, addend: 0x0, symName: __ZNSt3__14copyB7v160006IP11reservationS2_EET0_T_S4_S3_, symObjAddr: 0x3524, symBinAddr: 0x10000DEF4, symSize: 0x40 }
  - { offsetInCU: 0x468F, offset: 0x2DF6C, size: 0x8, addend: 0x0, symName: __ZNSt3__110__distanceB7v160006IP11reservationEENS_15iterator_traitsIT_E15difference_typeES4_S4_NS_26random_access_iterator_tagE, symObjAddr: 0x3714, symBinAddr: 0x10000DF34, symSize: 0x28 }
  - { offsetInCU: 0x46DD, offset: 0x2DFBA, size: 0x8, addend: 0x0, symName: __ZNSt3__121__convert_to_integralB7v160006Em, symObjAddr: 0x373C, symBinAddr: 0x10000DF5C, symSize: 0x14 }
  - { offsetInCU: 0x4709, offset: 0x2DFE6, size: 0x8, addend: 0x0, symName: __ZNSt3__19__advanceB7v160006IP11reservationEEvRT_NS_15iterator_traitsIS3_E15difference_typeENS_26random_access_iterator_tagE, symObjAddr: 0x3750, symBinAddr: 0x10000DF70, symSize: 0x28 }
  - { offsetInCU: 0x4753, offset: 0x2E030, size: 0x8, addend: 0x0, symName: __ZNSt3__16__copyB7v160006INS_17_ClassicAlgPolicyEP11reservationS3_S3_EENS_4pairIT0_T2_EES5_T1_S6_, symObjAddr: 0x3778, symBinAddr: 0x10000DF98, symSize: 0x44 }
  - { offsetInCU: 0x47BF, offset: 0x2E09C, size: 0x8, addend: 0x0, symName: __ZNSt3__123__dispatch_copy_or_moveB7v160006INS_17_ClassicAlgPolicyENS_11__copy_loopIS1_EENS_14__copy_trivialEP11reservationS6_S6_EENS_4pairIT2_T4_EES8_T3_S9_, symObjAddr: 0x37BC, symBinAddr: 0x10000DFDC, symSize: 0x44 }
  - { offsetInCU: 0x483D, offset: 0x2E11A, size: 0x8, addend: 0x0, symName: __ZNSt3__121__unwrap_and_dispatchB7v160006INS_10__overloadINS_11__copy_loopINS_17_ClassicAlgPolicyEEENS_14__copy_trivialEEEP11reservationS8_S8_Li0EEENS_4pairIT0_T2_EESA_T1_SB_, symObjAddr: 0x3800, symBinAddr: 0x10000E020, symSize: 0xB4 }
  - { offsetInCU: 0x48CB, offset: 0x2E1A8, size: 0x8, addend: 0x0, symName: __ZNSt3__114__unwrap_rangeB7v160006IP11reservationS2_EENS_4pairIT0_S4_EET_S6_, symObjAddr: 0x38B4, symBinAddr: 0x10000E0D4, symSize: 0x60 }
  - { offsetInCU: 0x4A3D, offset: 0x2E31A, size: 0x8, addend: 0x0, symName: __ZNSt3__113__unwrap_iterB7v160006IP11reservationNS_18__unwrap_iter_implIS2_Lb1EEELi0EEEDTclsrT0_8__unwrapclsr3stdE7declvalIT_EEEES6_, symObjAddr: 0x399C, symBinAddr: 0x10000E1BC, symSize: 0x24 }
  - { offsetInCU: 0x4A81, offset: 0x2E35E, size: 0x8, addend: 0x0, symName: __ZNSt3__19make_pairB7v160006IP11reservationS2_EENS_4pairINS_18__unwrap_ref_decayIT_E4typeENS4_IT0_E4typeEEEOS5_OS8_, symObjAddr: 0x39C0, symBinAddr: 0x10000E1E0, symSize: 0x38 }
  - { offsetInCU: 0x4AD0, offset: 0x2E3AD, size: 0x8, addend: 0x0, symName: __ZNSt3__114__rewrap_rangeB7v160006IP11reservationS2_EET_S3_T0_, symObjAddr: 0x39F8, symBinAddr: 0x10000E218, symSize: 0x2C }
  - { offsetInCU: 0x4B1C, offset: 0x2E3F9, size: 0x8, addend: 0x0, symName: __ZNSt3__113__rewrap_iterB7v160006IP11reservationS2_NS_18__unwrap_iter_implIS2_Lb1EEEEET_S5_T0_, symObjAddr: 0x3A24, symBinAddr: 0x10000E244, symSize: 0x3C }
  - { offsetInCU: 0x7016, offset: 0x308F3, size: 0x8, addend: 0x0, symName: __ZNK7RbtNode7siblingEv, symObjAddr: 0x0, symBinAddr: 0x10000C3C8, symSize: 0x7C }
  - { offsetInCU: 0x7229, offset: 0x30B06, size: 0x8, addend: 0x0, symName: __ZN6RBTreeC2Ev, symObjAddr: 0x7C, symBinAddr: 0x10000C444, symSize: 0x1C }
  - { offsetInCU: 0x7255, offset: 0x30B32, size: 0x8, addend: 0x0, symName: __ZN6RBTreeC1Ev, symObjAddr: 0x98, symBinAddr: 0x10000C460, symSize: 0x2C }
  - { offsetInCU: 0x7281, offset: 0x30B5E, size: 0x8, addend: 0x0, symName: __ZN6RBTree14ColorFlipCountEv, symObjAddr: 0xC4, symBinAddr: 0x10000C48C, symSize: 0x18 }
  - { offsetInCU: 0x72A9, offset: 0x30B86, size: 0x8, addend: 0x0, symName: __ZN6RBTree11rotate_leftERP7RbtNodeS2_, symObjAddr: 0xDC, symBinAddr: 0x10000C4A4, symSize: 0x130 }
  - { offsetInCU: 0x72FB, offset: 0x30BD8, size: 0x8, addend: 0x0, symName: __ZN6RBTree12rotate_rightERP7RbtNodeS2_, symObjAddr: 0x20C, symBinAddr: 0x10000C5D4, symSize: 0x130 }
  - { offsetInCU: 0x734D, offset: 0x30C2A, size: 0x8, addend: 0x0, symName: __ZN6RBTree11insert_nodeEP7RbtNodeS1_, symObjAddr: 0x33C, symBinAddr: 0x10000C704, symSize: 0xDC }
  - { offsetInCU: 0x7391, offset: 0x30C6E, size: 0x8, addend: 0x0, symName: __ZN6RBTree18fix_colorviolationERP7RbtNodeS2_, symObjAddr: 0x418, symBinAddr: 0x10000C7E0, symSize: 0x3EC }
  - { offsetInCU: 0x7429, offset: 0x30D06, size: 0x8, addend: 0x0, symName: __ZN6RBTree3addE4book, symObjAddr: 0x840, symBinAddr: 0x10000CC08, symSize: 0xA0 }
  - { offsetInCU: 0x746E, offset: 0x30D4B, size: 0x8, addend: 0x0, symName: __ZN7RbtNodeC1EiRK4book, symObjAddr: 0x8E0, symBinAddr: 0x10000CCA8, symSize: 0x3C }
  - { offsetInCU: 0x74B4, offset: 0x30D91, size: 0x8, addend: 0x0, symName: __ZNK6RBTree4findEi, symObjAddr: 0x91C, symBinAddr: 0x10000CCE4, symSize: 0xB4 }
  - { offsetInCU: 0x74F8, offset: 0x30DD5, size: 0x8, addend: 0x0, symName: __ZNK6RBTree11findclosestEi, symObjAddr: 0x9D0, symBinAddr: 0x10000CD98, symSize: 0x218 }
  - { offsetInCU: 0x754B, offset: 0x30E28, size: 0x8, addend: 0x0, symName: __ZNKSt3__16vectorIiNS_9allocatorIiEEE5emptyB7v160006Ev, symObjAddr: 0xC80, symBinAddr: 0x10000CFB0, symSize: 0x28 }
  - { offsetInCU: 0x7571, offset: 0x30E4E, size: 0x8, addend: 0x0, symName: __ZNSt3__16vectorIiNS_9allocatorIiEEE5clearB7v160006Ev, symObjAddr: 0xCCC, symBinAddr: 0x10000CFD8, symSize: 0x4C }
  - { offsetInCU: 0x75A6, offset: 0x30E83, size: 0x8, addend: 0x0, symName: __ZN6RBTree9successorEP7RbtNode, symObjAddr: 0xD44, symBinAddr: 0x10000D024, symSize: 0x4C }
  - { offsetInCU: 0x75ED, offset: 0x30ECA, size: 0x8, addend: 0x0, symName: __ZN6RBTree10BSTreplaceEP7RbtNode, symObjAddr: 0xD90, symBinAddr: 0x10000D070, symSize: 0xE4 }
  - { offsetInCU: 0x7625, offset: 0x30F02, size: 0x8, addend: 0x0, symName: __ZN6RBTree16fix_double_blackEP7RbtNode, symObjAddr: 0xE74, symBinAddr: 0x10000D154, symSize: 0x514 }
  - { offsetInCU: 0x7698, offset: 0x30F75, size: 0x8, addend: 0x0, symName: __ZN6RBTree6removeEP7RbtNode, symObjAddr: 0x1388, symBinAddr: 0x10000D668, symSize: 0x330 }
  - { offsetInCU: 0x770C, offset: 0x30FE9, size: 0x8, addend: 0x0, symName: __ZN7RbtNodeD1Ev, symObjAddr: 0x16B8, symBinAddr: 0x10000D998, symSize: 0x2C }
  - { offsetInCU: 0x773D, offset: 0x3101A, size: 0x8, addend: 0x0, symName: __ZN4bookaSERKS_, symObjAddr: 0x16E4, symBinAddr: 0x10000D9C4, symSize: 0x7C }
  - { offsetInCU: 0x776E, offset: 0x3104B, size: 0x8, addend: 0x0, symName: __ZN6RBTree6removeEi, symObjAddr: 0x17D4, symBinAddr: 0x10000DAB4, symSize: 0x90 }
  - { offsetInCU: 0x77B5, offset: 0x31092, size: 0x8, addend: 0x0, symName: __ZNK6RBTreeixEi, symObjAddr: 0x1930, symBinAddr: 0x10000DB44, symSize: 0x34 }
  - { offsetInCU: 0x77FC, offset: 0x310D9, size: 0x8, addend: 0x0, symName: __ZNK6RBTree5emptyEv, symObjAddr: 0x1964, symBinAddr: 0x10000DB78, symSize: 0x24 }
  - { offsetInCU: 0x7825, offset: 0x31102, size: 0x8, addend: 0x0, symName: __ZN7RbtNodeC2EiRK4book, symObjAddr: 0x1988, symBinAddr: 0x10000DB9C, symSize: 0x54 }
  - { offsetInCU: 0x788E, offset: 0x3116B, size: 0x8, addend: 0x0, symName: __ZN7RbtNodeD2Ev, symObjAddr: 0x3220, symBinAddr: 0x10000DBF0, symSize: 0x30 }
  - { offsetInCU: 0x78BA, offset: 0x31197, size: 0x8, addend: 0x0, symName: __ZNSt3__114priority_queueI11reservationNS_6vectorIS1_NS_9allocatorIS1_EEEE7CompareEaSB7v160006ERKS7_, symObjAddr: 0x3250, symBinAddr: 0x10000DC20, symSize: 0x34 }
  - { offsetInCU: 0x78EF, offset: 0x311CC, size: 0x8, addend: 0x0, symName: __ZNSt3__16vectorI11reservationNS_9allocatorIS1_EEEaSB7v160006ERKS4_, symObjAddr: 0x3284, symBinAddr: 0x10000DC54, symSize: 0x68 }
  - { offsetInCU: 0x7926, offset: 0x31203, size: 0x8, addend: 0x0, symName: __ZNSt3__16vectorI11reservationNS_9allocatorIS1_EEE19__copy_assign_allocB7v160006ERKS4_, symObjAddr: 0x32EC, symBinAddr: 0x10000DCBC, symSize: 0x2C }
  - { offsetInCU: 0x795B, offset: 0x31238, size: 0x8, addend: 0x0, symName: __ZNSt3__16vectorI11reservationNS_9allocatorIS1_EEE6assignIPS1_Li0EEEvT_S7_, symObjAddr: 0x3318, symBinAddr: 0x10000DCE8, symSize: 0x17C }
  - { offsetInCU: 0x79FA, offset: 0x312D7, size: 0x8, addend: 0x0, symName: __ZNSt3__16vectorI11reservationNS_9allocatorIS1_EEE19__copy_assign_allocB7v160006ERKS4_NS_17integral_constantIbLb0EEE, symObjAddr: 0x3494, symBinAddr: 0x10000DE64, symSize: 0x14 }
  - { offsetInCU: 0x7A5B, offset: 0x31338, size: 0x8, addend: 0x0, symName: __ZNKSt3__111__copy_loopINS_17_ClassicAlgPolicyEEclB7v160006IP11reservationS5_S5_EENS_4pairIT_T1_EES7_T0_S8_, symObjAddr: 0x3914, symBinAddr: 0x10000E134, symSize: 0x88 }
  - { offsetInCU: 0x7AC6, offset: 0x313A3, size: 0x8, addend: 0x0, symName: __ZN11reservationaSERKS_, symObjAddr: 0x3A60, symBinAddr: 0x10000E280, symSize: 0x48 }
  - { offsetInCU: 0x7AF7, offset: 0x313D4, size: 0x8, addend: 0x0, symName: __ZNSt3__118__unwrap_iter_implIP11reservationLb1EE8__unwrapB7v160006ES2_, symObjAddr: 0x3AA8, symBinAddr: 0x10000E2C8, symSize: 0x24 }
  - { offsetInCU: 0x7B1F, offset: 0x313FC, size: 0x8, addend: 0x0, symName: __ZNSt3__14pairIP11reservationS2_EC1B7v160006IS2_S2_LPv0EEEOT_OT0_, symObjAddr: 0x3ACC, symBinAddr: 0x10000E2EC, symSize: 0x3C }
  - { offsetInCU: 0x7B7D, offset: 0x3145A, size: 0x8, addend: 0x0, symName: __ZNSt3__14pairIP11reservationS2_EC2B7v160006IS2_S2_LPv0EEEOT_OT0_, symObjAddr: 0x3B08, symBinAddr: 0x10000E328, symSize: 0x34 }
  - { offsetInCU: 0x7BDB, offset: 0x314B8, size: 0x8, addend: 0x0, symName: __ZNSt3__118__unwrap_iter_implIP11reservationLb1EE8__rewrapB7v160006ES2_S2_, symObjAddr: 0x3B3C, symBinAddr: 0x10000E35C, symSize: 0x50 }
  - { offsetInCU: 0x7C25, offset: 0x31502, size: 0x8, addend: 0x0, symName: __ZNKSt3__16vectorIiNS_9allocatorIiEEE17__annotate_shrinkB7v160006Em, symObjAddr: 0x56A8, symBinAddr: 0x10000E3AC, symSize: 0xB4 }
  - { offsetInCU: 0x4A0F, offset: 0x35F7C, size: 0x8, addend: 0x0, symName: __ZN11reservationC2Eii, symObjAddr: 0x0, symBinAddr: 0x10000E460, symSize: 0xB0 }
  - { offsetInCU: 0x4A6B, offset: 0x35FD8, size: 0x8, addend: 0x0, symName: __ZNSt3__112basic_stringIcNS_11char_traitsIcEENS_9allocatorIcEEEaSB7v160006EPKc, symObjAddr: 0xDC, symBinAddr: 0x10000E510, symSize: 0x2C }
  - { offsetInCU: 0x4AA0, offset: 0x3600D, size: 0x8, addend: 0x0, symName: __ZN11reservationC1Eii, symObjAddr: 0x108, symBinAddr: 0x10000E53C, symSize: 0x3C }
...
